
spike_bitstorm_router.elf:     file format elf32-avr

Sections:
Idx Name          Size      VMA       LMA       File off  Algn
  0 .data         00000028  00800100  000020aa  0000213e  2**0
                  CONTENTS, ALLOC, LOAD, DATA
  1 .text         000020aa  00000000  00000000  00000094  2**1
                  CONTENTS, ALLOC, LOAD, READONLY, CODE
  2 .bss          0000083a  00800128  00800128  00002166  2**0
                  ALLOC
  3 .comment      00000011  00000000  00000000  00002166  2**0
                  CONTENTS, READONLY
  4 .debug_aranges 000000a0  00000000  00000000  00002178  2**3
                  CONTENTS, READONLY, DEBUGGING
  5 .debug_info   000003bb  00000000  00000000  00002218  2**0
                  CONTENTS, READONLY, DEBUGGING
  6 .debug_abbrev 00000064  00000000  00000000  000025d3  2**0
                  CONTENTS, READONLY, DEBUGGING
  7 .debug_line   000001ce  00000000  00000000  00002637  2**0
                  CONTENTS, READONLY, DEBUGGING

Disassembly of section .text:

00000000 <__vectors>:
       0:	0c 94 76 00 	jmp	0xec	; 0xec <__ctors_end>
       4:	0c 94 95 00 	jmp	0x12a	; 0x12a <__bad_interrupt>
       8:	0c 94 95 00 	jmp	0x12a	; 0x12a <__bad_interrupt>
       c:	0c 94 95 00 	jmp	0x12a	; 0x12a <__bad_interrupt>
      10:	0c 94 95 00 	jmp	0x12a	; 0x12a <__bad_interrupt>
      14:	0c 94 95 00 	jmp	0x12a	; 0x12a <__bad_interrupt>
      18:	0c 94 95 00 	jmp	0x12a	; 0x12a <__bad_interrupt>
      1c:	0c 94 95 00 	jmp	0x12a	; 0x12a <__bad_interrupt>
      20:	0c 94 95 00 	jmp	0x12a	; 0x12a <__bad_interrupt>
      24:	0c 94 95 00 	jmp	0x12a	; 0x12a <__bad_interrupt>
      28:	0c 94 95 00 	jmp	0x12a	; 0x12a <__bad_interrupt>
      2c:	0c 94 95 00 	jmp	0x12a	; 0x12a <__bad_interrupt>
      30:	0c 94 95 00 	jmp	0x12a	; 0x12a <__bad_interrupt>
      34:	0c 94 95 00 	jmp	0x12a	; 0x12a <__bad_interrupt>
      38:	0c 94 95 00 	jmp	0x12a	; 0x12a <__bad_interrupt>
      3c:	0c 94 95 00 	jmp	0x12a	; 0x12a <__bad_interrupt>
      40:	0c 94 ed 01 	jmp	0x3da	; 0x3da <__vector_16>
      44:	0c 94 95 00 	jmp	0x12a	; 0x12a <__bad_interrupt>
      48:	0c 94 95 00 	jmp	0x12a	; 0x12a <__bad_interrupt>
      4c:	0c 94 95 00 	jmp	0x12a	; 0x12a <__bad_interrupt>
      50:	0c 94 aa 04 	jmp	0x954	; 0x954 <__vector_20>
      54:	0c 94 95 00 	jmp	0x12a	; 0x12a <__bad_interrupt>
      58:	0c 94 95 00 	jmp	0x12a	; 0x12a <__bad_interrupt>
      5c:	0c 94 95 00 	jmp	0x12a	; 0x12a <__bad_interrupt>
      60:	0c 94 95 00 	jmp	0x12a	; 0x12a <__bad_interrupt>
      64:	0c 94 95 00 	jmp	0x12a	; 0x12a <__bad_interrupt>
      68:	0c 94 95 00 	jmp	0x12a	; 0x12a <__bad_interrupt>
      6c:	0c 94 95 00 	jmp	0x12a	; 0x12a <__bad_interrupt>
      70:	0c 94 fd 03 	jmp	0x7fa	; 0x7fa <__vector_28>
      74:	0c 94 95 00 	jmp	0x12a	; 0x12a <__bad_interrupt>
      78:	0c 94 95 00 	jmp	0x12a	; 0x12a <__bad_interrupt>
      7c:	0c 94 95 00 	jmp	0x12a	; 0x12a <__bad_interrupt>
      80:	0c 94 95 00 	jmp	0x12a	; 0x12a <__bad_interrupt>
      84:	0c 94 95 00 	jmp	0x12a	; 0x12a <__bad_interrupt>
      88:	0c 94 95 00 	jmp	0x12a	; 0x12a <__bad_interrupt>

0000008c <__trampolines_end>:
      8c:	48 45       	sbci	r20, 0x58	; 88
      8e:	4c 4c       	sbci	r20, 0xCC	; 204
      90:	4f 20       	and	r4, r15
      92:	57 4f       	sbci	r21, 0xF7	; 247
      94:	52 4c       	sbci	r21, 0xC2	; 194
      96:	44 0d       	add	r20, r4
      98:	0a 00       	.word	0x000a	; ????

0000009a <__c.2281>:
      9a:	25 6c 75 20 00                                      %lu .

0000009f <DEBUG_hex>:
      9f:	30 31 32 33 34 35 36 37 38 39 41 42 43 44 45 46     0123456789ABCDEF
	...

000000b0 <_tag>:
      b0:	64 65 62 75 67 3a 20 00                             debug: .

000000b8 <BTLE_hex>:
      b8:	30 31 32 33 34 35 36 37 38 39 41 42 43 44 45 46     0123456789ABCDEF
	...

000000c9 <__c.2233>:
      c9:	72 73 73 69 3d 25 64 20 62 61 74 74 3d 25 64 20     rssi=%d batt=%d 
      d9:	74 65 6d 70 3d 25 64 20 6d 61 63 3d 25 64 20 0d     temp=%d mac=%d .
      e9:	0a 00 00                                            ...

000000ec <__ctors_end>:
      ec:	11 24       	eor	r1, r1
      ee:	1f be       	out	0x3f, r1	; 63
      f0:	cf ef       	ldi	r28, 0xFF	; 255
      f2:	d0 e4       	ldi	r29, 0x40	; 64
      f4:	de bf       	out	0x3e, r29	; 62
      f6:	cd bf       	out	0x3d, r28	; 61

000000f8 <__do_copy_data>:
      f8:	11 e0       	ldi	r17, 0x01	; 1
      fa:	a0 e0       	ldi	r26, 0x00	; 0
      fc:	b1 e0       	ldi	r27, 0x01	; 1
      fe:	ea ea       	ldi	r30, 0xAA	; 170
     100:	f0 e2       	ldi	r31, 0x20	; 32
     102:	00 e0       	ldi	r16, 0x00	; 0
     104:	0b bf       	out	0x3b, r16	; 59
     106:	02 c0       	rjmp	.+4      	; 0x10c <__do_copy_data+0x14>
     108:	07 90       	elpm	r0, Z+
     10a:	0d 92       	st	X+, r0
     10c:	a8 32       	cpi	r26, 0x28	; 40
     10e:	b1 07       	cpc	r27, r17
     110:	d9 f7       	brne	.-10     	; 0x108 <__do_copy_data+0x10>

00000112 <__do_clear_bss>:
     112:	29 e0       	ldi	r18, 0x09	; 9
     114:	a8 e2       	ldi	r26, 0x28	; 40
     116:	b1 e0       	ldi	r27, 0x01	; 1
     118:	01 c0       	rjmp	.+2      	; 0x11c <.do_clear_bss_start>

0000011a <.do_clear_bss_loop>:
     11a:	1d 92       	st	X+, r1

0000011c <.do_clear_bss_start>:
     11c:	a2 36       	cpi	r26, 0x62	; 98
     11e:	b2 07       	cpc	r27, r18
     120:	e1 f7       	brne	.-8      	; 0x11a <.do_clear_bss_loop>
     122:	0e 94 34 0b 	call	0x1668	; 0x1668 <main>
     126:	0c 94 53 10 	jmp	0x20a6	; 0x20a6 <_exit>

0000012a <__bad_interrupt>:
     12a:	0c 94 00 00 	jmp	0	; 0x0 <__vectors>

0000012e <wan_init>:
     12e:	0e 94 32 04 	call	0x864	; 0x864 <wan_usart_init>
     132:	0c 94 a5 01 	jmp	0x34a	; 0x34a <wan_driver_init>

00000136 <wan_set_cts>:
     136:	58 98       	cbi	0x0b, 0	; 11
     138:	08 95       	ret

0000013a <wan_get_rts>:
     13a:	89 b1       	in	r24, 0x09	; 9
     13c:	82 70       	andi	r24, 0x02	; 2
     13e:	08 95       	ret

00000140 <frame_tick>:
     140:	cf 93       	push	r28
     142:	df 93       	push	r29
     144:	0e 94 68 04 	call	0x8d0	; 0x8d0 <wan_usart_data_available>
     148:	88 23       	and	r24, r24
     14a:	71 f1       	breq	.+92     	; 0x1a8 <frame_tick+0x68>
     14c:	c0 91 2b 01 	lds	r28, 0x012B
     150:	d0 91 2c 01 	lds	r29, 0x012C
     154:	0e 94 6e 04 	call	0x8dc	; 0x8dc <wan_usart_data_read>
     158:	c3 5d       	subi	r28, 0xD3	; 211
     15a:	de 4f       	sbci	r29, 0xFE	; 254
     15c:	88 83       	st	Y, r24
     15e:	80 91 2b 01 	lds	r24, 0x012B
     162:	90 91 2c 01 	lds	r25, 0x012C
     166:	00 97       	sbiw	r24, 0x00	; 0
     168:	41 f4       	brne	.+16     	; 0x17a <frame_tick+0x3a>
     16a:	20 91 2d 01 	lds	r18, 0x012D
     16e:	30 e0       	ldi	r19, 0x00	; 0
     170:	30 93 2a 01 	sts	0x012A, r19
     174:	20 93 29 01 	sts	0x0129, r18
     178:	11 c0       	rjmp	.+34     	; 0x19c <frame_tick+0x5c>
     17a:	20 91 29 01 	lds	r18, 0x0129
     17e:	30 91 2a 01 	lds	r19, 0x012A
     182:	82 17       	cp	r24, r18
     184:	93 07       	cpc	r25, r19
     186:	54 f0       	brlt	.+20     	; 0x19c <frame_tick+0x5c>
     188:	81 e0       	ldi	r24, 0x01	; 1
     18a:	80 93 7d 01 	sts	0x017D, r24
     18e:	0e 94 68 04 	call	0x8d0	; 0x8d0 <wan_usart_data_available>
     192:	88 23       	and	r24, r24
     194:	49 f0       	breq	.+18     	; 0x1a8 <frame_tick+0x68>
     196:	0e 94 6e 04 	call	0x8dc	; 0x8dc <wan_usart_data_read>
     19a:	f9 cf       	rjmp	.-14     	; 0x18e <frame_tick+0x4e>
     19c:	01 96       	adiw	r24, 0x01	; 1
     19e:	90 93 2c 01 	sts	0x012C, r25
     1a2:	80 93 2b 01 	sts	0x012B, r24
     1a6:	ce cf       	rjmp	.-100    	; 0x144 <frame_tick+0x4>
     1a8:	df 91       	pop	r29
     1aa:	cf 91       	pop	r28
     1ac:	08 95       	ret

000001ae <wan_tick>:
     1ae:	80 91 28 01 	lds	r24, 0x0128
     1b2:	81 11       	cpse	r24, r1
     1b4:	04 c0       	rjmp	.+8      	; 0x1be <wan_tick+0x10>
     1b6:	0e 94 90 01 	call	0x320	; 0x320 <wan_config_tick>
     1ba:	80 93 28 01 	sts	0x0128, r24
     1be:	0e 94 a0 00 	call	0x140	; 0x140 <frame_tick>
     1c2:	80 91 7d 01 	lds	r24, 0x017D
     1c6:	88 23       	and	r24, r24
     1c8:	61 f0       	breq	.+24     	; 0x1e2 <wan_tick+0x34>
     1ca:	8d e2       	ldi	r24, 0x2D	; 45
     1cc:	91 e0       	ldi	r25, 0x01	; 1
     1ce:	0e 94 77 01 	call	0x2ee	; 0x2ee <wan_config_received>
     1d2:	80 93 28 01 	sts	0x0128, r24
     1d6:	10 92 7d 01 	sts	0x017D, r1
     1da:	10 92 2c 01 	sts	0x012C, r1
     1de:	10 92 2b 01 	sts	0x012B, r1
     1e2:	80 91 14 07 	lds	r24, 0x0714
     1e6:	90 91 15 07 	lds	r25, 0x0715
     1ea:	89 2b       	or	r24, r25
     1ec:	51 f0       	breq	.+20     	; 0x202 <wan_tick+0x54>
     1ee:	60 91 16 07 	lds	r22, 0x0716
     1f2:	70 91 17 07 	lds	r23, 0x0717
     1f6:	6a 5f       	subi	r22, 0xFA	; 250
     1f8:	7f 4f       	sbci	r23, 0xFF	; 255
     1fa:	82 e1       	ldi	r24, 0x12	; 18
     1fc:	97 e0       	ldi	r25, 0x07	; 7
     1fe:	0c 94 9a 07 	jmp	0xf34	; 0xf34 <queue_remove>
     202:	08 95       	ret

00000204 <wan_enqueue>:
     204:	4d e0       	ldi	r20, 0x0D	; 13
     206:	50 e0       	ldi	r21, 0x00	; 0
     208:	bc 01       	movw	r22, r24
     20a:	82 e1       	ldi	r24, 0x12	; 18
     20c:	97 e0       	ldi	r25, 0x07	; 7
     20e:	0c 94 6c 06 	jmp	0xcd8	; 0xcd8 <queue_enqueue>

00000212 <wan_get_device_address>:
     212:	cf 93       	push	r28
     214:	df 93       	push	r29
     216:	cd b7       	in	r28, 0x3d	; 61
     218:	de b7       	in	r29, 0x3e	; 62
     21a:	2a 97       	sbiw	r28, 0x0a	; 10
     21c:	0f b6       	in	r0, 0x3f	; 63
     21e:	f8 94       	cli
     220:	de bf       	out	0x3e, r29	; 62
     222:	0f be       	out	0x3f, r0	; 63
     224:	cd bf       	out	0x3d, r28	; 61
     226:	82 e0       	ldi	r24, 0x02	; 2
     228:	89 83       	std	Y+1, r24	; 0x01
     22a:	84 e0       	ldi	r24, 0x04	; 4
     22c:	8a 83       	std	Y+2, r24	; 0x02
     22e:	8f ef       	ldi	r24, 0xFF	; 255
     230:	8b 83       	std	Y+3, r24	; 0x03
     232:	63 e0       	ldi	r22, 0x03	; 3
     234:	70 e0       	ldi	r23, 0x00	; 0
     236:	ce 01       	movw	r24, r28
     238:	01 96       	adiw	r24, 0x01	; 1
     23a:	0e 94 8e 04 	call	0x91c	; 0x91c <wan_usart_transmit_bytes>
     23e:	2a 96       	adiw	r28, 0x0a	; 10
     240:	0f b6       	in	r0, 0x3f	; 63
     242:	f8 94       	cli
     244:	de bf       	out	0x3e, r29	; 62
     246:	0f be       	out	0x3f, r0	; 63
     248:	cd bf       	out	0x3d, r28	; 61
     24a:	df 91       	pop	r29
     24c:	cf 91       	pop	r28
     24e:	08 95       	ret

00000250 <wan_config_network>:
     250:	cf 93       	push	r28
     252:	df 93       	push	r29
     254:	cd b7       	in	r28, 0x3d	; 61
     256:	de b7       	in	r29, 0x3e	; 62
     258:	2f 97       	sbiw	r28, 0x0f	; 15
     25a:	0f b6       	in	r0, 0x3f	; 63
     25c:	f8 94       	cli
     25e:	de bf       	out	0x3e, r29	; 62
     260:	0f be       	out	0x3f, r0	; 63
     262:	cd bf       	out	0x3d, r28	; 61
     264:	23 e7       	ldi	r18, 0x73	; 115
     266:	2b 87       	std	Y+11, r18	; 0x0b
     268:	89 e1       	ldi	r24, 0x19	; 25
     26a:	8c 87       	std	Y+12, r24	; 0x0c
     26c:	90 91 50 09 	lds	r25, 0x0950
     270:	80 91 51 09 	lds	r24, 0x0951
     274:	9d 87       	std	Y+13, r25	; 0x0d
     276:	8e 87       	std	Y+14, r24	; 0x0e
     278:	86 e1       	ldi	r24, 0x16	; 22
     27a:	8f 87       	std	Y+15, r24	; 0x0f
     27c:	37 e0       	ldi	r19, 0x07	; 7
     27e:	39 83       	std	Y+1, r19	; 0x01
     280:	33 e0       	ldi	r19, 0x03	; 3
     282:	3a 83       	std	Y+2, r19	; 0x02
     284:	2b 83       	std	Y+3, r18	; 0x03
     286:	29 e1       	ldi	r18, 0x19	; 25
     288:	2c 83       	std	Y+4, r18	; 0x04
     28a:	9d 83       	std	Y+5, r25	; 0x05
     28c:	9e 85       	ldd	r25, Y+14	; 0x0e
     28e:	9e 83       	std	Y+6, r25	; 0x06
     290:	8f 83       	std	Y+7, r24	; 0x07
     292:	8f ef       	ldi	r24, 0xFF	; 255
     294:	88 87       	std	Y+8, r24	; 0x08
     296:	68 e0       	ldi	r22, 0x08	; 8
     298:	70 e0       	ldi	r23, 0x00	; 0
     29a:	ce 01       	movw	r24, r28
     29c:	01 96       	adiw	r24, 0x01	; 1
     29e:	0e 94 8e 04 	call	0x91c	; 0x91c <wan_usart_transmit_bytes>
     2a2:	2f 96       	adiw	r28, 0x0f	; 15
     2a4:	0f b6       	in	r0, 0x3f	; 63
     2a6:	f8 94       	cli
     2a8:	de bf       	out	0x3e, r29	; 62
     2aa:	0f be       	out	0x3f, r0	; 63
     2ac:	cd bf       	out	0x3d, r28	; 61
     2ae:	df 91       	pop	r29
     2b0:	cf 91       	pop	r28
     2b2:	08 95       	ret

000002b4 <config_mac_resp>:
     2b4:	fc 01       	movw	r30, r24
     2b6:	81 81       	ldd	r24, Z+1	; 0x01
     2b8:	80 93 50 09 	sts	0x0950, r24
     2bc:	82 81       	ldd	r24, Z+2	; 0x02
     2be:	80 93 51 09 	sts	0x0951, r24
     2c2:	83 81       	ldd	r24, Z+3	; 0x03
     2c4:	80 93 52 09 	sts	0x0952, r24
     2c8:	84 81       	ldd	r24, Z+4	; 0x04
     2ca:	80 93 53 09 	sts	0x0953, r24
     2ce:	85 81       	ldd	r24, Z+5	; 0x05
     2d0:	80 93 54 09 	sts	0x0954, r24
     2d4:	86 81       	ldd	r24, Z+6	; 0x06
     2d6:	80 93 55 09 	sts	0x0955, r24
     2da:	87 81       	ldd	r24, Z+7	; 0x07
     2dc:	80 93 56 09 	sts	0x0956, r24
     2e0:	80 85       	ldd	r24, Z+8	; 0x08
     2e2:	80 93 57 09 	sts	0x0957, r24
     2e6:	81 e0       	ldi	r24, 0x01	; 1
     2e8:	80 93 7e 01 	sts	0x017E, r24
     2ec:	08 95       	ret

000002ee <wan_config_received>:
     2ee:	fc 01       	movw	r30, r24
     2f0:	21 81       	ldd	r18, Z+1	; 0x01
     2f2:	20 93 7f 01 	sts	0x017F, r18
     2f6:	23 30       	cpi	r18, 0x03	; 3
     2f8:	31 f0       	breq	.+12     	; 0x306 <wan_config_received+0x18>
     2fa:	24 30       	cpi	r18, 0x04	; 4
     2fc:	31 f4       	brne	.+12     	; 0x30a <wan_config_received+0x1c>
     2fe:	01 96       	adiw	r24, 0x01	; 1
     300:	0e 94 5a 01 	call	0x2b4	; 0x2b4 <config_mac_resp>
     304:	02 c0       	rjmp	.+4      	; 0x30a <wan_config_received+0x1c>
     306:	20 93 7e 01 	sts	0x017E, r18
     30a:	81 e0       	ldi	r24, 0x01	; 1
     30c:	90 91 7e 01 	lds	r25, 0x017E
     310:	93 30       	cpi	r25, 0x03	; 3
     312:	09 f0       	breq	.+2      	; 0x316 <wan_config_received+0x28>
     314:	80 e0       	ldi	r24, 0x00	; 0
     316:	08 95       	ret

00000318 <config_ntw_resp>:
     318:	83 e0       	ldi	r24, 0x03	; 3
     31a:	80 93 7e 01 	sts	0x017E, r24
     31e:	08 95       	ret

00000320 <wan_config_tick>:
     320:	80 91 7e 01 	lds	r24, 0x017E
     324:	88 23       	and	r24, r24
     326:	29 f0       	breq	.+10     	; 0x332 <wan_config_tick+0x12>
     328:	81 30       	cpi	r24, 0x01	; 1
     32a:	41 f4       	brne	.+16     	; 0x33c <wan_config_tick+0x1c>
     32c:	0e 94 28 01 	call	0x250	; 0x250 <wan_config_network>
     330:	02 c0       	rjmp	.+4      	; 0x336 <wan_config_tick+0x16>
     332:	0e 94 09 01 	call	0x212	; 0x212 <wan_get_device_address>
     336:	82 e0       	ldi	r24, 0x02	; 2
     338:	80 93 7e 01 	sts	0x017E, r24
     33c:	81 e0       	ldi	r24, 0x01	; 1
     33e:	90 91 7e 01 	lds	r25, 0x017E
     342:	93 30       	cpi	r25, 0x03	; 3
     344:	09 f0       	breq	.+2      	; 0x348 <wan_config_tick+0x28>
     346:	80 e0       	ldi	r24, 0x00	; 0
     348:	08 95       	ret

0000034a <wan_driver_init>:
     34a:	10 92 81 01 	sts	0x0181, r1
     34e:	10 92 80 01 	sts	0x0180, r1
     352:	81 e8       	ldi	r24, 0x81	; 129
     354:	e7 e2       	ldi	r30, 0x27	; 39
     356:	f7 e0       	ldi	r31, 0x07	; 7
     358:	df 01       	movw	r26, r30
     35a:	98 2f       	mov	r25, r24
     35c:	1d 92       	st	X+, r1
     35e:	9a 95       	dec	r25
     360:	e9 f7       	brne	.-6      	; 0x35c <wan_driver_init+0x12>
     362:	e8 ea       	ldi	r30, 0xA8	; 168
     364:	f7 e0       	ldi	r31, 0x07	; 7
     366:	df 01       	movw	r26, r30
     368:	1d 92       	st	X+, r1
     36a:	8a 95       	dec	r24
     36c:	e9 f7       	brne	.-6      	; 0x368 <wan_driver_init+0x1e>
     36e:	08 95       	ret

00000370 <wan_driver_tick>:
     370:	0c 94 68 04 	jmp	0x8d0	; 0x8d0 <wan_usart_data_available>

00000374 <clock_init>:
     374:	84 b5       	in	r24, 0x24	; 36
     376:	82 60       	ori	r24, 0x02	; 2
     378:	84 bd       	out	0x24, r24	; 36
     37a:	8d e7       	ldi	r24, 0x7D	; 125
     37c:	87 bd       	out	0x27, r24	; 39
     37e:	85 b5       	in	r24, 0x25	; 37
     380:	83 60       	ori	r24, 0x03	; 3
     382:	85 bd       	out	0x25, r24	; 37
     384:	82 e0       	ldi	r24, 0x02	; 2
     386:	80 93 6e 00 	sts	0x006E, r24
     38a:	08 95       	ret

0000038c <clock_time>:
     38c:	60 91 29 08 	lds	r22, 0x0829
     390:	70 91 2a 08 	lds	r23, 0x082A
     394:	80 91 2b 08 	lds	r24, 0x082B
     398:	90 91 2c 08 	lds	r25, 0x082C
     39c:	08 95       	ret

0000039e <delay_millis>:
     39e:	0f 93       	push	r16
     3a0:	1f 93       	push	r17
     3a2:	00 91 29 08 	lds	r16, 0x0829
     3a6:	10 91 2a 08 	lds	r17, 0x082A
     3aa:	20 91 2b 08 	lds	r18, 0x082B
     3ae:	30 91 2c 08 	lds	r19, 0x082C
     3b2:	60 0f       	add	r22, r16
     3b4:	71 1f       	adc	r23, r17
     3b6:	82 1f       	adc	r24, r18
     3b8:	93 1f       	adc	r25, r19
     3ba:	00 91 29 08 	lds	r16, 0x0829
     3be:	10 91 2a 08 	lds	r17, 0x082A
     3c2:	20 91 2b 08 	lds	r18, 0x082B
     3c6:	30 91 2c 08 	lds	r19, 0x082C
     3ca:	60 17       	cp	r22, r16
     3cc:	71 07       	cpc	r23, r17
     3ce:	82 07       	cpc	r24, r18
     3d0:	93 07       	cpc	r25, r19
     3d2:	98 f7       	brcc	.-26     	; 0x3ba <delay_millis+0x1c>
     3d4:	1f 91       	pop	r17
     3d6:	0f 91       	pop	r16
     3d8:	08 95       	ret

000003da <__vector_16>:
     3da:	1f 92       	push	r1
     3dc:	0f 92       	push	r0
     3de:	0f b6       	in	r0, 0x3f	; 63
     3e0:	0f 92       	push	r0
     3e2:	11 24       	eor	r1, r1
     3e4:	8f 93       	push	r24
     3e6:	9f 93       	push	r25
     3e8:	af 93       	push	r26
     3ea:	bf 93       	push	r27
     3ec:	80 91 29 08 	lds	r24, 0x0829
     3f0:	90 91 2a 08 	lds	r25, 0x082A
     3f4:	a0 91 2b 08 	lds	r26, 0x082B
     3f8:	b0 91 2c 08 	lds	r27, 0x082C
     3fc:	01 96       	adiw	r24, 0x01	; 1
     3fe:	a1 1d       	adc	r26, r1
     400:	b1 1d       	adc	r27, r1
     402:	80 93 29 08 	sts	0x0829, r24
     406:	90 93 2a 08 	sts	0x082A, r25
     40a:	a0 93 2b 08 	sts	0x082B, r26
     40e:	b0 93 2c 08 	sts	0x082C, r27
     412:	bf 91       	pop	r27
     414:	af 91       	pop	r26
     416:	9f 91       	pop	r25
     418:	8f 91       	pop	r24
     41a:	0f 90       	pop	r0
     41c:	0f be       	out	0x3f, r0	; 63
     41e:	0f 90       	pop	r0
     420:	1f 90       	pop	r1
     422:	18 95       	reti

00000424 <isr_tick>:
     424:	80 91 29 08 	lds	r24, 0x0829
     428:	90 91 2a 08 	lds	r25, 0x082A
     42c:	a0 91 2b 08 	lds	r26, 0x082B
     430:	b0 91 2c 08 	lds	r27, 0x082C
     434:	01 96       	adiw	r24, 0x01	; 1
     436:	a1 1d       	adc	r26, r1
     438:	b1 1d       	adc	r27, r1
     43a:	80 93 29 08 	sts	0x0829, r24
     43e:	90 93 2a 08 	sts	0x082A, r25
     442:	a0 93 2b 08 	sts	0x082B, r26
     446:	b0 93 2c 08 	sts	0x082C, r27
     44a:	08 95       	ret

0000044c <config_init>:
     44c:	10 92 2d 08 	sts	0x082D, r1
     450:	10 92 34 08 	sts	0x0834, r1
     454:	10 92 33 08 	sts	0x0833, r1
     458:	10 92 32 08 	sts	0x0832, r1
     45c:	10 92 2e 08 	sts	0x082E, r1
     460:	10 92 2f 08 	sts	0x082F, r1
     464:	10 92 30 08 	sts	0x0830, r1
     468:	10 92 31 08 	sts	0x0831, r1
     46c:	10 92 3b 08 	sts	0x083B, r1
     470:	10 92 3a 08 	sts	0x083A, r1
     474:	10 92 39 08 	sts	0x0839, r1
     478:	10 92 35 08 	sts	0x0835, r1
     47c:	10 92 36 08 	sts	0x0836, r1
     480:	10 92 37 08 	sts	0x0837, r1
     484:	10 92 38 08 	sts	0x0838, r1
     488:	08 95       	ret

0000048a <load_config>:
     48a:	08 95       	ret

0000048c <write_config>:
     48c:	08 95       	ret

0000048e <_debug_init>:
     48e:	10 92 c5 00 	sts	0x00C5, r1
     492:	23 e3       	ldi	r18, 0x33	; 51
     494:	20 93 c4 00 	sts	0x00C4, r18
     498:	e1 ec       	ldi	r30, 0xC1	; 193
     49a:	f0 e0       	ldi	r31, 0x00	; 0
     49c:	20 81       	ld	r18, Z
     49e:	20 68       	ori	r18, 0x80	; 128
     4a0:	20 83       	st	Z, r18
     4a2:	20 81       	ld	r18, Z
     4a4:	28 61       	ori	r18, 0x18	; 24
     4a6:	20 83       	st	Z, r18
     4a8:	e2 ec       	ldi	r30, 0xC2	; 194
     4aa:	f0 e0       	ldi	r31, 0x00	; 0
     4ac:	20 81       	ld	r18, Z
     4ae:	26 60       	ori	r18, 0x06	; 6
     4b0:	20 83       	st	Z, r18
     4b2:	90 93 3f 08 	sts	0x083F, r25
     4b6:	80 93 3e 08 	sts	0x083E, r24
     4ba:	60 e0       	ldi	r22, 0x00	; 0
     4bc:	70 e0       	ldi	r23, 0x00	; 0
     4be:	8f ea       	ldi	r24, 0xAF	; 175
     4c0:	92 e0       	ldi	r25, 0x02	; 2
     4c2:	0c 94 cc 0c 	jmp	0x1998	; 0x1998 <fdevopen>

000004c6 <USART_RX_vect>:
     4c6:	1f 92       	push	r1
     4c8:	0f 92       	push	r0
     4ca:	0f b6       	in	r0, 0x3f	; 63
     4cc:	0f 92       	push	r0
     4ce:	11 24       	eor	r1, r1
     4d0:	0b b6       	in	r0, 0x3b	; 59
     4d2:	0f 92       	push	r0
     4d4:	2f 93       	push	r18
     4d6:	3f 93       	push	r19
     4d8:	4f 93       	push	r20
     4da:	5f 93       	push	r21
     4dc:	6f 93       	push	r22
     4de:	7f 93       	push	r23
     4e0:	8f 93       	push	r24
     4e2:	9f 93       	push	r25
     4e4:	af 93       	push	r26
     4e6:	bf 93       	push	r27
     4e8:	ef 93       	push	r30
     4ea:	ff 93       	push	r31
     4ec:	80 91 c6 00 	lds	r24, 0x00C6
     4f0:	e0 91 3e 08 	lds	r30, 0x083E
     4f4:	f0 91 3f 08 	lds	r31, 0x083F
     4f8:	30 97       	sbiw	r30, 0x00	; 0
     4fa:	09 f0       	breq	.+2      	; 0x4fe <USART_RX_vect+0x38>
     4fc:	09 95       	icall
     4fe:	ff 91       	pop	r31
     500:	ef 91       	pop	r30
     502:	bf 91       	pop	r27
     504:	af 91       	pop	r26
     506:	9f 91       	pop	r25
     508:	8f 91       	pop	r24
     50a:	7f 91       	pop	r23
     50c:	6f 91       	pop	r22
     50e:	5f 91       	pop	r21
     510:	4f 91       	pop	r20
     512:	3f 91       	pop	r19
     514:	2f 91       	pop	r18
     516:	0f 90       	pop	r0
     518:	0b be       	out	0x3b, r0	; 59
     51a:	0f 90       	pop	r0
     51c:	0f be       	out	0x3f, r0	; 63
     51e:	0f 90       	pop	r0
     520:	1f 90       	pop	r1
     522:	18 95       	reti

00000524 <_debug_set_rx_cb>:
     524:	90 93 3f 08 	sts	0x083F, r25
     528:	80 93 3e 08 	sts	0x083E, r24
     52c:	08 95       	ret

0000052e <_debug_set_out_cb>:
     52e:	90 93 3d 08 	sts	0x083D, r25
     532:	80 93 3c 08 	sts	0x083C, r24
     536:	08 95       	ret

00000538 <_debug_stringz>:
     538:	fc 01       	movw	r30, r24
     53a:	81 91       	ld	r24, Z+
     53c:	88 23       	and	r24, r24
     53e:	39 f0       	breq	.+14     	; 0x54e <_debug_stringz+0x16>
     540:	90 91 c0 00 	lds	r25, 0x00C0
     544:	95 ff       	sbrs	r25, 5
     546:	fc cf       	rjmp	.-8      	; 0x540 <_debug_stringz+0x8>
     548:	80 93 c6 00 	sts	0x00C6, r24
     54c:	f6 cf       	rjmp	.-20     	; 0x53a <_debug_stringz+0x2>
     54e:	08 95       	ret

00000550 <_debug_byte>:
     550:	90 91 c0 00 	lds	r25, 0x00C0
     554:	95 ff       	sbrs	r25, 5
     556:	fc cf       	rjmp	.-8      	; 0x550 <_debug_byte>
     558:	80 93 c6 00 	sts	0x00C6, r24
     55c:	08 95       	ret

0000055e <_debug_putch>:
     55e:	cf 93       	push	r28
     560:	c8 2f       	mov	r28, r24
     562:	0e 94 a8 02 	call	0x550	; 0x550 <_debug_byte>
     566:	e0 91 3c 08 	lds	r30, 0x083C
     56a:	f0 91 3d 08 	lds	r31, 0x083D
     56e:	30 97       	sbiw	r30, 0x00	; 0
     570:	11 f0       	breq	.+4      	; 0x576 <_debug_putch+0x18>
     572:	8c 2f       	mov	r24, r28
     574:	09 95       	icall
     576:	80 e0       	ldi	r24, 0x00	; 0
     578:	90 e0       	ldi	r25, 0x00	; 0
     57a:	cf 91       	pop	r28
     57c:	08 95       	ret

0000057e <_debug_byte_as_hex>:
     57e:	e8 2f       	mov	r30, r24
     580:	e2 95       	swap	r30
     582:	ef 70       	andi	r30, 0x0F	; 15
     584:	f0 e0       	ldi	r31, 0x00	; 0
     586:	e1 56       	subi	r30, 0x61	; 97
     588:	ff 4f       	sbci	r31, 0xFF	; 255
     58a:	e4 91       	lpm	r30, Z
     58c:	90 91 c0 00 	lds	r25, 0x00C0
     590:	95 ff       	sbrs	r25, 5
     592:	fc cf       	rjmp	.-8      	; 0x58c <_debug_byte_as_hex+0xe>
     594:	e0 93 c6 00 	sts	0x00C6, r30
     598:	8f 70       	andi	r24, 0x0F	; 15
     59a:	e8 2f       	mov	r30, r24
     59c:	f0 e0       	ldi	r31, 0x00	; 0
     59e:	e1 56       	subi	r30, 0x61	; 97
     5a0:	ff 4f       	sbci	r31, 0xFF	; 255
     5a2:	e4 91       	lpm	r30, Z
     5a4:	80 91 c0 00 	lds	r24, 0x00C0
     5a8:	85 ff       	sbrs	r24, 5
     5aa:	fc cf       	rjmp	.-8      	; 0x5a4 <_debug_byte_as_hex+0x26>
     5ac:	e0 93 c6 00 	sts	0x00C6, r30
     5b0:	08 95       	ret

000005b2 <_debug_hex_dump>:
     5b2:	ef 92       	push	r14
     5b4:	ff 92       	push	r15
     5b6:	0f 93       	push	r16
     5b8:	1f 93       	push	r17
     5ba:	cf 93       	push	r28
     5bc:	df 93       	push	r29
     5be:	8c 01       	movw	r16, r24
     5c0:	7b 01       	movw	r14, r22
     5c2:	ec 01       	movw	r28, r24
     5c4:	ce 01       	movw	r24, r28
     5c6:	80 1b       	sub	r24, r16
     5c8:	91 0b       	sbc	r25, r17
     5ca:	8e 15       	cp	r24, r14
     5cc:	9f 05       	cpc	r25, r15
     5ce:	3c f4       	brge	.+14     	; 0x5de <_debug_hex_dump+0x2c>
     5d0:	89 91       	ld	r24, Y+
     5d2:	0e 94 bf 02 	call	0x57e	; 0x57e <_debug_byte_as_hex>
     5d6:	80 e2       	ldi	r24, 0x20	; 32
     5d8:	0e 94 a8 02 	call	0x550	; 0x550 <_debug_byte>
     5dc:	f3 cf       	rjmp	.-26     	; 0x5c4 <_debug_hex_dump+0x12>
     5de:	8d e0       	ldi	r24, 0x0D	; 13
     5e0:	0e 94 a8 02 	call	0x550	; 0x550 <_debug_byte>
     5e4:	8a e0       	ldi	r24, 0x0A	; 10
     5e6:	df 91       	pop	r29
     5e8:	cf 91       	pop	r28
     5ea:	1f 91       	pop	r17
     5ec:	0f 91       	pop	r16
     5ee:	ff 90       	pop	r15
     5f0:	ef 90       	pop	r14
     5f2:	0c 94 a8 02 	jmp	0x550	; 0x550 <_debug_byte>

000005f6 <_debug_log>:
     5f6:	0f 93       	push	r16
     5f8:	1f 93       	push	r17
     5fa:	cf 93       	push	r28
     5fc:	df 93       	push	r29
     5fe:	cd b7       	in	r28, 0x3d	; 61
     600:	de b7       	in	r29, 0x3e	; 62
     602:	0f 81       	ldd	r16, Y+7	; 0x07
     604:	18 85       	ldd	r17, Y+8	; 0x08
     606:	01 15       	cp	r16, r1
     608:	11 05       	cpc	r17, r1
     60a:	d9 f0       	breq	.+54     	; 0x642 <_debug_log+0x4c>
     60c:	80 91 29 08 	lds	r24, 0x0829
     610:	90 91 2a 08 	lds	r25, 0x082A
     614:	a0 91 2b 08 	lds	r26, 0x082B
     618:	b0 91 2c 08 	lds	r27, 0x082C
     61c:	bf 93       	push	r27
     61e:	af 93       	push	r26
     620:	9f 93       	push	r25
     622:	8f 93       	push	r24
     624:	8a e9       	ldi	r24, 0x9A	; 154
     626:	90 e0       	ldi	r25, 0x00	; 0
     628:	9f 93       	push	r25
     62a:	8f 93       	push	r24
     62c:	0e 94 17 0d 	call	0x1a2e	; 0x1a2e <printf_P>
     630:	1f 93       	push	r17
     632:	0f 93       	push	r16
     634:	0e 94 17 0d 	call	0x1a2e	; 0x1a2e <printf_P>
     638:	0f b6       	in	r0, 0x3f	; 63
     63a:	f8 94       	cli
     63c:	de bf       	out	0x3e, r29	; 62
     63e:	0f be       	out	0x3f, r0	; 63
     640:	cd bf       	out	0x3d, r28	; 61
     642:	ae 01       	movw	r20, r28
     644:	45 5f       	subi	r20, 0xF5	; 245
     646:	5f 4f       	sbci	r21, 0xFF	; 255
     648:	69 85       	ldd	r22, Y+9	; 0x09
     64a:	7a 85       	ldd	r23, Y+10	; 0x0a
     64c:	80 91 5e 09 	lds	r24, 0x095E
     650:	90 91 5f 09 	lds	r25, 0x095F
     654:	0e 94 6a 0d 	call	0x1ad4	; 0x1ad4 <vfprintf_P>
     658:	df 91       	pop	r29
     65a:	cf 91       	pop	r28
     65c:	1f 91       	pop	r17
     65e:	0f 91       	pop	r16
     660:	08 95       	ret

00000662 <debug_test>:
     662:	8c e8       	ldi	r24, 0x8C	; 140
     664:	90 e0       	ldi	r25, 0x00	; 0
     666:	9f 93       	push	r25
     668:	8f 93       	push	r24
     66a:	80 eb       	ldi	r24, 0xB0	; 176
     66c:	90 e0       	ldi	r25, 0x00	; 0
     66e:	9f 93       	push	r25
     670:	8f 93       	push	r24
     672:	0e 94 fb 02 	call	0x5f6	; 0x5f6 <_debug_log>
     676:	0f 90       	pop	r0
     678:	0f 90       	pop	r0
     67a:	0f 90       	pop	r0
     67c:	0f 90       	pop	r0
     67e:	93 e4       	ldi	r25, 0x43	; 67
     680:	80 91 c0 00 	lds	r24, 0x00C0
     684:	85 fd       	sbrc	r24, 5
     686:	03 c0       	rjmp	.+6      	; 0x68e <debug_test+0x2c>
     688:	90 93 c6 00 	sts	0x00C6, r25
     68c:	f9 cf       	rjmp	.-14     	; 0x680 <debug_test+0x1e>
     68e:	2f ef       	ldi	r18, 0xFF	; 255
     690:	84 e3       	ldi	r24, 0x34	; 52
     692:	9c e0       	ldi	r25, 0x0C	; 12
     694:	21 50       	subi	r18, 0x01	; 1
     696:	80 40       	sbci	r24, 0x00	; 0
     698:	90 40       	sbci	r25, 0x00	; 0
     69a:	e1 f7       	brne	.-8      	; 0x694 <debug_test+0x32>
     69c:	00 c0       	rjmp	.+0      	; 0x69e <debug_test+0x3c>
     69e:	00 00       	nop
     6a0:	80 e5       	ldi	r24, 0x50	; 80
     6a2:	80 93 c6 00 	sts	0x00C6, r24
     6a6:	2f ef       	ldi	r18, 0xFF	; 255
     6a8:	84 e3       	ldi	r24, 0x34	; 52
     6aa:	9c e0       	ldi	r25, 0x0C	; 12
     6ac:	21 50       	subi	r18, 0x01	; 1
     6ae:	80 40       	sbci	r24, 0x00	; 0
     6b0:	90 40       	sbci	r25, 0x00	; 0
     6b2:	e1 f7       	brne	.-8      	; 0x6ac <debug_test+0x4a>
     6b4:	00 c0       	rjmp	.+0      	; 0x6b6 <debug_test+0x54>
     6b6:	00 00       	nop
     6b8:	88 e4       	ldi	r24, 0x48	; 72
     6ba:	80 93 c6 00 	sts	0x00C6, r24
     6be:	2f ef       	ldi	r18, 0xFF	; 255
     6c0:	84 e3       	ldi	r24, 0x34	; 52
     6c2:	9c e0       	ldi	r25, 0x0C	; 12
     6c4:	21 50       	subi	r18, 0x01	; 1
     6c6:	80 40       	sbci	r24, 0x00	; 0
     6c8:	90 40       	sbci	r25, 0x00	; 0
     6ca:	e1 f7       	brne	.-8      	; 0x6c4 <debug_test+0x62>
     6cc:	00 c0       	rjmp	.+0      	; 0x6ce <debug_test+0x6c>
     6ce:	00 00       	nop
     6d0:	08 95       	ret

000006d2 <_btle_set_rx_cb>:
     6d2:	90 93 41 08 	sts	0x0841, r25
     6d6:	80 93 40 08 	sts	0x0840, r24
     6da:	08 95       	ret

000006dc <btle_usart_init>:
     6dc:	10 92 cd 00 	sts	0x00CD, r1
     6e0:	8c e0       	ldi	r24, 0x0C	; 12
     6e2:	80 93 cc 00 	sts	0x00CC, r24
     6e6:	e9 ec       	ldi	r30, 0xC9	; 201
     6e8:	f0 e0       	ldi	r31, 0x00	; 0
     6ea:	80 81       	ld	r24, Z
     6ec:	88 68       	ori	r24, 0x88	; 136
     6ee:	80 83       	st	Z, r24
     6f0:	80 81       	ld	r24, Z
     6f2:	88 61       	ori	r24, 0x18	; 24
     6f4:	80 83       	st	Z, r24
     6f6:	ea ec       	ldi	r30, 0xCA	; 202
     6f8:	f0 e0       	ldi	r31, 0x00	; 0
     6fa:	80 81       	ld	r24, Z
     6fc:	86 60       	ori	r24, 0x06	; 6
     6fe:	80 83       	st	Z, r24
     700:	08 95       	ret

00000702 <btle_usart_init_cb>:
     702:	10 92 cd 00 	sts	0x00CD, r1
     706:	2c e0       	ldi	r18, 0x0C	; 12
     708:	20 93 cc 00 	sts	0x00CC, r18
     70c:	e9 ec       	ldi	r30, 0xC9	; 201
     70e:	f0 e0       	ldi	r31, 0x00	; 0
     710:	20 81       	ld	r18, Z
     712:	28 68       	ori	r18, 0x88	; 136
     714:	20 83       	st	Z, r18
     716:	20 81       	ld	r18, Z
     718:	28 61       	ori	r18, 0x18	; 24
     71a:	20 83       	st	Z, r18
     71c:	ea ec       	ldi	r30, 0xCA	; 202
     71e:	f0 e0       	ldi	r31, 0x00	; 0
     720:	20 81       	ld	r18, Z
     722:	26 60       	ori	r18, 0x06	; 6
     724:	20 83       	st	Z, r18
     726:	90 93 41 08 	sts	0x0841, r25
     72a:	80 93 40 08 	sts	0x0840, r24
     72e:	08 95       	ret

00000730 <btle_usart_put_char>:
     730:	40 91 85 03 	lds	r20, 0x0385
     734:	50 91 86 03 	lds	r21, 0x0386
     738:	9a 01       	movw	r18, r20
     73a:	2f 5f       	subi	r18, 0xFF	; 255
     73c:	3f 4f       	sbci	r19, 0xFF	; 255
     73e:	31 70       	andi	r19, 0x01	; 1
     740:	60 91 87 03 	lds	r22, 0x0387
     744:	70 91 88 03 	lds	r23, 0x0388
     748:	26 17       	cp	r18, r22
     74a:	37 07       	cpc	r19, r23
     74c:	41 f0       	breq	.+16     	; 0x75e <btle_usart_put_char+0x2e>
     74e:	fa 01       	movw	r30, r20
     750:	eb 57       	subi	r30, 0x7B	; 123
     752:	fe 4f       	sbci	r31, 0xFE	; 254
     754:	80 83       	st	Z, r24
     756:	30 93 86 03 	sts	0x0386, r19
     75a:	20 93 85 03 	sts	0x0385, r18
     75e:	08 95       	ret

00000760 <btle_usart_clear_buffer>:
     760:	84 e0       	ldi	r24, 0x04	; 4
     762:	92 e0       	ldi	r25, 0x02	; 2
     764:	e5 e8       	ldi	r30, 0x85	; 133
     766:	f1 e0       	ldi	r31, 0x01	; 1
     768:	df 01       	movw	r26, r30
     76a:	9c 01       	movw	r18, r24
     76c:	1d 92       	st	X+, r1
     76e:	21 50       	subi	r18, 0x01	; 1
     770:	30 40       	sbci	r19, 0x00	; 0
     772:	e1 f7       	brne	.-8      	; 0x76c <btle_usart_clear_buffer+0xc>
     774:	08 95       	ret

00000776 <btle_usart_data_available>:
     776:	80 91 85 03 	lds	r24, 0x0385
     77a:	90 91 87 03 	lds	r25, 0x0387
     77e:	89 1b       	sub	r24, r25
     780:	08 95       	ret

00000782 <btle_usart_data_read>:
     782:	20 91 87 03 	lds	r18, 0x0387
     786:	30 91 88 03 	lds	r19, 0x0388
     78a:	80 91 85 03 	lds	r24, 0x0385
     78e:	90 91 86 03 	lds	r25, 0x0386
     792:	82 17       	cp	r24, r18
     794:	93 07       	cpc	r25, r19
     796:	61 f0       	breq	.+24     	; 0x7b0 <btle_usart_data_read+0x2e>
     798:	f9 01       	movw	r30, r18
     79a:	eb 57       	subi	r30, 0x7B	; 123
     79c:	fe 4f       	sbci	r31, 0xFE	; 254
     79e:	80 81       	ld	r24, Z
     7a0:	2f 5f       	subi	r18, 0xFF	; 255
     7a2:	3f 4f       	sbci	r19, 0xFF	; 255
     7a4:	31 70       	andi	r19, 0x01	; 1
     7a6:	30 93 88 03 	sts	0x0388, r19
     7aa:	20 93 87 03 	sts	0x0387, r18
     7ae:	08 95       	ret
     7b0:	8f ef       	ldi	r24, 0xFF	; 255
     7b2:	08 95       	ret

000007b4 <btle_usart_transmit>:
     7b4:	90 91 c8 00 	lds	r25, 0x00C8
     7b8:	95 ff       	sbrs	r25, 5
     7ba:	fc cf       	rjmp	.-8      	; 0x7b4 <btle_usart_transmit>
     7bc:	80 93 ce 00 	sts	0x00CE, r24
     7c0:	08 95       	ret

000007c2 <btle_usart_transmit_bytes>:
     7c2:	fc 01       	movw	r30, r24
     7c4:	9f 01       	movw	r18, r30
     7c6:	28 1b       	sub	r18, r24
     7c8:	39 0b       	sbc	r19, r25
     7ca:	26 17       	cp	r18, r22
     7cc:	37 07       	cpc	r19, r23
     7ce:	44 f4       	brge	.+16     	; 0x7e0 <btle_usart_transmit_bytes+0x1e>
     7d0:	20 91 c8 00 	lds	r18, 0x00C8
     7d4:	25 ff       	sbrs	r18, 5
     7d6:	fc cf       	rjmp	.-8      	; 0x7d0 <btle_usart_transmit_bytes+0xe>
     7d8:	21 91       	ld	r18, Z+
     7da:	20 93 ce 00 	sts	0x00CE, r18
     7de:	f2 cf       	rjmp	.-28     	; 0x7c4 <btle_usart_transmit_bytes+0x2>
     7e0:	08 95       	ret

000007e2 <btle_usart_transmit_string>:
     7e2:	fc 01       	movw	r30, r24
     7e4:	81 91       	ld	r24, Z+
     7e6:	88 23       	and	r24, r24
     7e8:	39 f0       	breq	.+14     	; 0x7f8 <btle_usart_transmit_string+0x16>
     7ea:	90 91 c8 00 	lds	r25, 0x00C8
     7ee:	95 ff       	sbrs	r25, 5
     7f0:	fc cf       	rjmp	.-8      	; 0x7ea <btle_usart_transmit_string+0x8>
     7f2:	80 93 ce 00 	sts	0x00CE, r24
     7f6:	f6 cf       	rjmp	.-20     	; 0x7e4 <btle_usart_transmit_string+0x2>
     7f8:	08 95       	ret

000007fa <__vector_28>:
     7fa:	1f 92       	push	r1
     7fc:	0f 92       	push	r0
     7fe:	0f b6       	in	r0, 0x3f	; 63
     800:	0f 92       	push	r0
     802:	11 24       	eor	r1, r1
     804:	0b b6       	in	r0, 0x3b	; 59
     806:	0f 92       	push	r0
     808:	2f 93       	push	r18
     80a:	3f 93       	push	r19
     80c:	4f 93       	push	r20
     80e:	5f 93       	push	r21
     810:	6f 93       	push	r22
     812:	7f 93       	push	r23
     814:	8f 93       	push	r24
     816:	9f 93       	push	r25
     818:	af 93       	push	r26
     81a:	bf 93       	push	r27
     81c:	cf 93       	push	r28
     81e:	ef 93       	push	r30
     820:	ff 93       	push	r31
     822:	c0 91 ce 00 	lds	r28, 0x00CE
     826:	8c 2f       	mov	r24, r28
     828:	0e 94 98 03 	call	0x730	; 0x730 <btle_usart_put_char>
     82c:	e0 91 40 08 	lds	r30, 0x0840
     830:	f0 91 41 08 	lds	r31, 0x0841
     834:	30 97       	sbiw	r30, 0x00	; 0
     836:	11 f0       	breq	.+4      	; 0x83c <__vector_28+0x42>
     838:	8c 2f       	mov	r24, r28
     83a:	09 95       	icall
     83c:	ff 91       	pop	r31
     83e:	ef 91       	pop	r30
     840:	cf 91       	pop	r28
     842:	bf 91       	pop	r27
     844:	af 91       	pop	r26
     846:	9f 91       	pop	r25
     848:	8f 91       	pop	r24
     84a:	7f 91       	pop	r23
     84c:	6f 91       	pop	r22
     84e:	5f 91       	pop	r21
     850:	4f 91       	pop	r20
     852:	3f 91       	pop	r19
     854:	2f 91       	pop	r18
     856:	0f 90       	pop	r0
     858:	0b be       	out	0x3b, r0	; 59
     85a:	0f 90       	pop	r0
     85c:	0f be       	out	0x3f, r0	; 63
     85e:	0f 90       	pop	r0
     860:	1f 90       	pop	r1
     862:	18 95       	reti

00000864 <wan_usart_init>:
     864:	10 92 c5 00 	sts	0x00C5, r1
     868:	8c e0       	ldi	r24, 0x0C	; 12
     86a:	80 93 c4 00 	sts	0x00C4, r24
     86e:	e1 ec       	ldi	r30, 0xC1	; 193
     870:	f0 e0       	ldi	r31, 0x00	; 0
     872:	80 81       	ld	r24, Z
     874:	88 68       	ori	r24, 0x88	; 136
     876:	80 83       	st	Z, r24
     878:	80 81       	ld	r24, Z
     87a:	88 61       	ori	r24, 0x18	; 24
     87c:	80 83       	st	Z, r24
     87e:	e2 ec       	ldi	r30, 0xC2	; 194
     880:	f0 e0       	ldi	r31, 0x00	; 0
     882:	80 81       	ld	r24, Z
     884:	86 60       	ori	r24, 0x06	; 6
     886:	80 83       	st	Z, r24
     888:	08 95       	ret

0000088a <wan_usart_put_char>:
     88a:	40 91 89 05 	lds	r20, 0x0589
     88e:	50 91 8a 05 	lds	r21, 0x058A
     892:	9a 01       	movw	r18, r20
     894:	2f 5f       	subi	r18, 0xFF	; 255
     896:	3f 4f       	sbci	r19, 0xFF	; 255
     898:	31 70       	andi	r19, 0x01	; 1
     89a:	60 91 8b 05 	lds	r22, 0x058B
     89e:	70 91 8c 05 	lds	r23, 0x058C
     8a2:	26 17       	cp	r18, r22
     8a4:	37 07       	cpc	r19, r23
     8a6:	41 f0       	breq	.+16     	; 0x8b8 <wan_usart_put_char+0x2e>
     8a8:	fa 01       	movw	r30, r20
     8aa:	e7 57       	subi	r30, 0x77	; 119
     8ac:	fc 4f       	sbci	r31, 0xFC	; 252
     8ae:	80 83       	st	Z, r24
     8b0:	30 93 8a 05 	sts	0x058A, r19
     8b4:	20 93 89 05 	sts	0x0589, r18
     8b8:	08 95       	ret

000008ba <wan_usart_clear_buffer>:
     8ba:	84 e0       	ldi	r24, 0x04	; 4
     8bc:	92 e0       	ldi	r25, 0x02	; 2
     8be:	e9 e8       	ldi	r30, 0x89	; 137
     8c0:	f3 e0       	ldi	r31, 0x03	; 3
     8c2:	df 01       	movw	r26, r30
     8c4:	9c 01       	movw	r18, r24
     8c6:	1d 92       	st	X+, r1
     8c8:	21 50       	subi	r18, 0x01	; 1
     8ca:	30 40       	sbci	r19, 0x00	; 0
     8cc:	e1 f7       	brne	.-8      	; 0x8c6 <wan_usart_clear_buffer+0xc>
     8ce:	08 95       	ret

000008d0 <wan_usart_data_available>:
     8d0:	80 91 89 05 	lds	r24, 0x0589
     8d4:	90 91 8b 05 	lds	r25, 0x058B
     8d8:	89 1b       	sub	r24, r25
     8da:	08 95       	ret

000008dc <wan_usart_data_read>:
     8dc:	20 91 8b 05 	lds	r18, 0x058B
     8e0:	30 91 8c 05 	lds	r19, 0x058C
     8e4:	80 91 89 05 	lds	r24, 0x0589
     8e8:	90 91 8a 05 	lds	r25, 0x058A
     8ec:	82 17       	cp	r24, r18
     8ee:	93 07       	cpc	r25, r19
     8f0:	61 f0       	breq	.+24     	; 0x90a <wan_usart_data_read+0x2e>
     8f2:	f9 01       	movw	r30, r18
     8f4:	e7 57       	subi	r30, 0x77	; 119
     8f6:	fc 4f       	sbci	r31, 0xFC	; 252
     8f8:	80 81       	ld	r24, Z
     8fa:	2f 5f       	subi	r18, 0xFF	; 255
     8fc:	3f 4f       	sbci	r19, 0xFF	; 255
     8fe:	31 70       	andi	r19, 0x01	; 1
     900:	30 93 8c 05 	sts	0x058C, r19
     904:	20 93 8b 05 	sts	0x058B, r18
     908:	08 95       	ret
     90a:	8f ef       	ldi	r24, 0xFF	; 255
     90c:	08 95       	ret

0000090e <wan_usart_transmit>:
     90e:	90 91 c0 00 	lds	r25, 0x00C0
     912:	95 ff       	sbrs	r25, 5
     914:	fc cf       	rjmp	.-8      	; 0x90e <wan_usart_transmit>
     916:	80 93 c6 00 	sts	0x00C6, r24
     91a:	08 95       	ret

0000091c <wan_usart_transmit_bytes>:
     91c:	fc 01       	movw	r30, r24
     91e:	9f 01       	movw	r18, r30
     920:	28 1b       	sub	r18, r24
     922:	39 0b       	sbc	r19, r25
     924:	26 17       	cp	r18, r22
     926:	37 07       	cpc	r19, r23
     928:	44 f4       	brge	.+16     	; 0x93a <wan_usart_transmit_bytes+0x1e>
     92a:	20 91 c0 00 	lds	r18, 0x00C0
     92e:	25 ff       	sbrs	r18, 5
     930:	fc cf       	rjmp	.-8      	; 0x92a <wan_usart_transmit_bytes+0xe>
     932:	21 91       	ld	r18, Z+
     934:	20 93 c6 00 	sts	0x00C6, r18
     938:	f2 cf       	rjmp	.-28     	; 0x91e <wan_usart_transmit_bytes+0x2>
     93a:	08 95       	ret

0000093c <wan_usart_transmit_string>:
     93c:	fc 01       	movw	r30, r24
     93e:	81 91       	ld	r24, Z+
     940:	88 23       	and	r24, r24
     942:	39 f0       	breq	.+14     	; 0x952 <wan_usart_transmit_string+0x16>
     944:	90 91 c0 00 	lds	r25, 0x00C0
     948:	95 ff       	sbrs	r25, 5
     94a:	fc cf       	rjmp	.-8      	; 0x944 <wan_usart_transmit_string+0x8>
     94c:	80 93 c6 00 	sts	0x00C6, r24
     950:	f6 cf       	rjmp	.-20     	; 0x93e <wan_usart_transmit_string+0x2>
     952:	08 95       	ret

00000954 <__vector_20>:
     954:	1f 92       	push	r1
     956:	0f 92       	push	r0
     958:	0f b6       	in	r0, 0x3f	; 63
     95a:	0f 92       	push	r0
     95c:	11 24       	eor	r1, r1
     95e:	0b b6       	in	r0, 0x3b	; 59
     960:	0f 92       	push	r0
     962:	2f 93       	push	r18
     964:	3f 93       	push	r19
     966:	4f 93       	push	r20
     968:	5f 93       	push	r21
     96a:	6f 93       	push	r22
     96c:	7f 93       	push	r23
     96e:	8f 93       	push	r24
     970:	9f 93       	push	r25
     972:	af 93       	push	r26
     974:	bf 93       	push	r27
     976:	ef 93       	push	r30
     978:	ff 93       	push	r31
     97a:	80 91 c6 00 	lds	r24, 0x00C6
     97e:	0e 94 45 04 	call	0x88a	; 0x88a <wan_usart_put_char>
     982:	ff 91       	pop	r31
     984:	ef 91       	pop	r30
     986:	bf 91       	pop	r27
     988:	af 91       	pop	r26
     98a:	9f 91       	pop	r25
     98c:	8f 91       	pop	r24
     98e:	7f 91       	pop	r23
     990:	6f 91       	pop	r22
     992:	5f 91       	pop	r21
     994:	4f 91       	pop	r20
     996:	3f 91       	pop	r19
     998:	2f 91       	pop	r18
     99a:	0f 90       	pop	r0
     99c:	0b be       	out	0x3b, r0	; 59
     99e:	0f 90       	pop	r0
     9a0:	0f be       	out	0x3f, r0	; 63
     9a2:	0f 90       	pop	r0
     9a4:	1f 90       	pop	r1
     9a6:	18 95       	reti

000009a8 <ramdisk_init>:
     9a8:	ee e9       	ldi	r30, 0x9E	; 158
     9aa:	f5 e0       	ldi	r31, 0x05	; 5
     9ac:	cf 01       	movw	r24, r30
     9ae:	02 96       	adiw	r24, 0x02	; 2
     9b0:	91 83       	std	Z+1, r25	; 0x01
     9b2:	80 83       	st	Z, r24
     9b4:	3f 96       	adiw	r30, 0x0f	; 15
     9b6:	87 e0       	ldi	r24, 0x07	; 7
     9b8:	e6 30       	cpi	r30, 0x06	; 6
     9ba:	f8 07       	cpc	r31, r24
     9bc:	b9 f7       	brne	.-18     	; 0x9ac <ramdisk_init+0x4>
     9be:	10 92 07 07 	sts	0x0707, r1
     9c2:	10 92 06 07 	sts	0x0706, r1
     9c6:	81 e9       	ldi	r24, 0x91	; 145
     9c8:	95 e0       	ldi	r25, 0x05	; 5
     9ca:	90 93 8e 05 	sts	0x058E, r25
     9ce:	80 93 8d 05 	sts	0x058D, r24
     9d2:	10 92 90 05 	sts	0x0590, r1
     9d6:	10 92 8f 05 	sts	0x058F, r1
     9da:	08 95       	ret

000009dc <ramdisk_write>:
     9dc:	6f 92       	push	r6
     9de:	7f 92       	push	r7
     9e0:	8f 92       	push	r8
     9e2:	9f 92       	push	r9
     9e4:	af 92       	push	r10
     9e6:	bf 92       	push	r11
     9e8:	cf 92       	push	r12
     9ea:	df 92       	push	r13
     9ec:	ef 92       	push	r14
     9ee:	ff 92       	push	r15
     9f0:	0f 93       	push	r16
     9f2:	1f 93       	push	r17
     9f4:	cf 93       	push	r28
     9f6:	df 93       	push	r29
     9f8:	cd b7       	in	r28, 0x3d	; 61
     9fa:	de b7       	in	r29, 0x3e	; 62
     9fc:	2f 97       	sbiw	r28, 0x0f	; 15
     9fe:	0f b6       	in	r0, 0x3f	; 63
     a00:	f8 94       	cli
     a02:	de bf       	out	0x3e, r29	; 62
     a04:	0f be       	out	0x3f, r0	; 63
     a06:	cd bf       	out	0x3d, r28	; 61
     a08:	a9 82       	std	Y+1, r10	; 0x01
     a0a:	ba 82       	std	Y+2, r11	; 0x02
     a0c:	cb 82       	std	Y+3, r12	; 0x03
     a0e:	dc 82       	std	Y+4, r13	; 0x04
     a10:	ed 82       	std	Y+5, r14	; 0x05
     a12:	fe 82       	std	Y+6, r15	; 0x06
     a14:	0f 83       	std	Y+7, r16	; 0x07
     a16:	18 87       	std	Y+8, r17	; 0x08
     a18:	29 87       	std	Y+9, r18	; 0x09
     a1a:	3a 87       	std	Y+10, r19	; 0x0a
     a1c:	4b 87       	std	Y+11, r20	; 0x0b
     a1e:	5c 87       	std	Y+12, r21	; 0x0c
     a20:	6d 87       	std	Y+13, r22	; 0x0d
     a22:	7e 87       	std	Y+14, r23	; 0x0e
     a24:	8f 87       	std	Y+15, r24	; 0x0f
     a26:	aa 85       	ldd	r26, Y+10	; 0x0a
     a28:	bb 85       	ldd	r27, Y+11	; 0x0b
     a2a:	6c 85       	ldd	r22, Y+12	; 0x0c
     a2c:	7d 85       	ldd	r23, Y+13	; 0x0d
     a2e:	e0 91 8d 05 	lds	r30, 0x058D
     a32:	f0 91 8e 05 	lds	r31, 0x058E
     a36:	30 97       	sbiw	r30, 0x00	; 0
     a38:	d1 f1       	breq	.+116    	; 0xaae <ramdisk_write+0xd2>
     a3a:	80 91 8f 05 	lds	r24, 0x058F
     a3e:	90 91 90 05 	lds	r25, 0x0590
     a42:	45 85       	ldd	r20, Z+13	; 0x0d
     a44:	56 85       	ldd	r21, Z+14	; 0x0e
     a46:	00 97       	sbiw	r24, 0x00	; 0
     a48:	c1 f4       	brne	.+48     	; 0xa7a <ramdisk_write+0x9e>
     a4a:	f0 93 90 05 	sts	0x0590, r31
     a4e:	e0 93 8f 05 	sts	0x058F, r30
     a52:	50 93 8e 05 	sts	0x058E, r21
     a56:	40 93 8d 05 	sts	0x058D, r20
     a5a:	b1 82       	std	Z+1, r11	; 0x01
     a5c:	c2 82       	std	Z+2, r12	; 0x02
     a5e:	d3 82       	std	Z+3, r13	; 0x03
     a60:	e4 82       	std	Z+4, r14	; 0x04
     a62:	f5 82       	std	Z+5, r15	; 0x05
     a64:	06 83       	std	Z+6, r16	; 0x06
     a66:	17 83       	std	Z+7, r17	; 0x07
     a68:	20 87       	std	Z+8, r18	; 0x08
     a6a:	b2 87       	std	Z+10, r27	; 0x0a
     a6c:	a1 87       	std	Z+9, r26	; 0x09
     a6e:	a0 82       	st	Z, r10
     a70:	74 87       	std	Z+12, r23	; 0x0c
     a72:	63 87       	std	Z+11, r22	; 0x0b
     a74:	16 86       	std	Z+14, r1	; 0x0e
     a76:	15 86       	std	Z+13, r1	; 0x0d
     a78:	17 c0       	rjmp	.+46     	; 0xaa8 <ramdisk_write+0xcc>
     a7a:	b1 82       	std	Z+1, r11	; 0x01
     a7c:	c2 82       	std	Z+2, r12	; 0x02
     a7e:	d3 82       	std	Z+3, r13	; 0x03
     a80:	e4 82       	std	Z+4, r14	; 0x04
     a82:	f5 82       	std	Z+5, r15	; 0x05
     a84:	06 83       	std	Z+6, r16	; 0x06
     a86:	17 83       	std	Z+7, r17	; 0x07
     a88:	20 87       	std	Z+8, r18	; 0x08
     a8a:	b2 87       	std	Z+10, r27	; 0x0a
     a8c:	a1 87       	std	Z+9, r26	; 0x09
     a8e:	a0 82       	st	Z, r10
     a90:	74 87       	std	Z+12, r23	; 0x0c
     a92:	63 87       	std	Z+11, r22	; 0x0b
     a94:	f0 93 90 05 	sts	0x0590, r31
     a98:	e0 93 8f 05 	sts	0x058F, r30
     a9c:	50 93 8e 05 	sts	0x058E, r21
     aa0:	40 93 8d 05 	sts	0x058D, r20
     aa4:	96 87       	std	Z+14, r25	; 0x0e
     aa6:	85 87       	std	Z+13, r24	; 0x0d
     aa8:	8f ef       	ldi	r24, 0xFF	; 255
     aaa:	90 e0       	ldi	r25, 0x00	; 0
     aac:	02 c0       	rjmp	.+4      	; 0xab2 <ramdisk_write+0xd6>
     aae:	80 e0       	ldi	r24, 0x00	; 0
     ab0:	90 e0       	ldi	r25, 0x00	; 0
     ab2:	2f 96       	adiw	r28, 0x0f	; 15
     ab4:	0f b6       	in	r0, 0x3f	; 63
     ab6:	f8 94       	cli
     ab8:	de bf       	out	0x3e, r29	; 62
     aba:	0f be       	out	0x3f, r0	; 63
     abc:	cd bf       	out	0x3d, r28	; 61
     abe:	df 91       	pop	r29
     ac0:	cf 91       	pop	r28
     ac2:	1f 91       	pop	r17
     ac4:	0f 91       	pop	r16
     ac6:	ff 90       	pop	r15
     ac8:	ef 90       	pop	r14
     aca:	df 90       	pop	r13
     acc:	cf 90       	pop	r12
     ace:	bf 90       	pop	r11
     ad0:	af 90       	pop	r10
     ad2:	9f 90       	pop	r9
     ad4:	8f 90       	pop	r8
     ad6:	7f 90       	pop	r7
     ad8:	6f 90       	pop	r6
     ada:	08 95       	ret

00000adc <ramdisk_erase>:
     adc:	2f 92       	push	r2
     ade:	3f 92       	push	r3
     ae0:	4f 92       	push	r4
     ae2:	5f 92       	push	r5
     ae4:	6f 92       	push	r6
     ae6:	7f 92       	push	r7
     ae8:	8f 92       	push	r8
     aea:	9f 92       	push	r9
     aec:	af 92       	push	r10
     aee:	bf 92       	push	r11
     af0:	cf 92       	push	r12
     af2:	df 92       	push	r13
     af4:	ef 92       	push	r14
     af6:	ff 92       	push	r15
     af8:	0f 93       	push	r16
     afa:	1f 93       	push	r17
     afc:	cf 93       	push	r28
     afe:	df 93       	push	r29
     b00:	cd b7       	in	r28, 0x3d	; 61
     b02:	de b7       	in	r29, 0x3e	; 62
     b04:	2f 97       	sbiw	r28, 0x0f	; 15
     b06:	0f b6       	in	r0, 0x3f	; 63
     b08:	f8 94       	cli
     b0a:	de bf       	out	0x3e, r29	; 62
     b0c:	0f be       	out	0x3f, r0	; 63
     b0e:	cd bf       	out	0x3d, r28	; 61
     b10:	a9 82       	std	Y+1, r10	; 0x01
     b12:	9b 2c       	mov	r9, r11
     b14:	ba 82       	std	Y+2, r11	; 0x02
     b16:	8c 2c       	mov	r8, r12
     b18:	cb 82       	std	Y+3, r12	; 0x03
     b1a:	7d 2c       	mov	r7, r13
     b1c:	dc 82       	std	Y+4, r13	; 0x04
     b1e:	6e 2c       	mov	r6, r14
     b20:	ed 82       	std	Y+5, r14	; 0x05
     b22:	5f 2c       	mov	r5, r15
     b24:	fe 82       	std	Y+6, r15	; 0x06
     b26:	40 2e       	mov	r4, r16
     b28:	0f 83       	std	Y+7, r16	; 0x07
     b2a:	31 2e       	mov	r3, r17
     b2c:	18 87       	std	Y+8, r17	; 0x08
     b2e:	22 2e       	mov	r2, r18
     b30:	29 87       	std	Y+9, r18	; 0x09
     b32:	3a 87       	std	Y+10, r19	; 0x0a
     b34:	4b 87       	std	Y+11, r20	; 0x0b
     b36:	5c 87       	std	Y+12, r21	; 0x0c
     b38:	6d 87       	std	Y+13, r22	; 0x0d
     b3a:	7e 87       	std	Y+14, r23	; 0x0e
     b3c:	8f 87       	std	Y+15, r24	; 0x0f
     b3e:	a0 91 8f 05 	lds	r26, 0x058F
     b42:	b0 91 90 05 	lds	r27, 0x0590
     b46:	fd 01       	movw	r30, r26
     b48:	21 81       	ldd	r18, Z+1	; 0x01
     b4a:	32 81       	ldd	r19, Z+2	; 0x02
     b4c:	43 81       	ldd	r20, Z+3	; 0x03
     b4e:	54 81       	ldd	r21, Z+4	; 0x04
     b50:	65 81       	ldd	r22, Z+5	; 0x05
     b52:	76 81       	ldd	r23, Z+6	; 0x06
     b54:	87 81       	ldd	r24, Z+7	; 0x07
     b56:	90 85       	ldd	r25, Z+8	; 0x08
     b58:	a9 2c       	mov	r10, r9
     b5a:	b8 2c       	mov	r11, r8
     b5c:	c7 2c       	mov	r12, r7
     b5e:	d6 2c       	mov	r13, r6
     b60:	e5 2c       	mov	r14, r5
     b62:	f4 2c       	mov	r15, r4
     b64:	03 2d       	mov	r16, r3
     b66:	12 2d       	mov	r17, r2
     b68:	0e 94 68 0b 	call	0x16d0	; 0x16d0 <__cmpdi2>
     b6c:	31 f0       	breq	.+12     	; 0xb7a <ramdisk_erase+0x9e>
     b6e:	30 97       	sbiw	r30, 0x00	; 0
     b70:	b1 f1       	breq	.+108    	; 0xbde <ramdisk_erase+0x102>
     b72:	05 84       	ldd	r0, Z+13	; 0x0d
     b74:	f6 85       	ldd	r31, Z+14	; 0x0e
     b76:	e0 2d       	mov	r30, r0
     b78:	e7 cf       	rjmp	.-50     	; 0xb48 <ramdisk_erase+0x6c>
     b7a:	30 97       	sbiw	r30, 0x00	; 0
     b7c:	81 f1       	breq	.+96     	; 0xbde <ramdisk_erase+0x102>
     b7e:	ea 17       	cp	r30, r26
     b80:	fb 07       	cpc	r31, r27
     b82:	89 f4       	brne	.+34     	; 0xba6 <ramdisk_erase+0xca>
     b84:	85 85       	ldd	r24, Z+13	; 0x0d
     b86:	96 85       	ldd	r25, Z+14	; 0x0e
     b88:	90 93 90 05 	sts	0x0590, r25
     b8c:	80 93 8f 05 	sts	0x058F, r24
     b90:	80 91 8d 05 	lds	r24, 0x058D
     b94:	90 91 8e 05 	lds	r25, 0x058E
     b98:	96 87       	std	Z+14, r25	; 0x0e
     b9a:	85 87       	std	Z+13, r24	; 0x0d
     b9c:	f0 93 8e 05 	sts	0x058E, r31
     ba0:	e0 93 8d 05 	sts	0x058D, r30
     ba4:	19 c0       	rjmp	.+50     	; 0xbd8 <ramdisk_erase+0xfc>
     ba6:	1d 96       	adiw	r26, 0x0d	; 13
     ba8:	8d 91       	ld	r24, X+
     baa:	9c 91       	ld	r25, X
     bac:	1e 97       	sbiw	r26, 0x0e	; 14
     bae:	8e 17       	cp	r24, r30
     bb0:	9f 07       	cpc	r25, r31
     bb2:	11 f0       	breq	.+4      	; 0xbb8 <ramdisk_erase+0xdc>
     bb4:	dc 01       	movw	r26, r24
     bb6:	f7 cf       	rjmp	.-18     	; 0xba6 <ramdisk_erase+0xca>
     bb8:	85 85       	ldd	r24, Z+13	; 0x0d
     bba:	96 85       	ldd	r25, Z+14	; 0x0e
     bbc:	1e 96       	adiw	r26, 0x0e	; 14
     bbe:	9c 93       	st	X, r25
     bc0:	8e 93       	st	-X, r24
     bc2:	1d 97       	sbiw	r26, 0x0d	; 13
     bc4:	80 91 8d 05 	lds	r24, 0x058D
     bc8:	90 91 8e 05 	lds	r25, 0x058E
     bcc:	f0 93 8e 05 	sts	0x058E, r31
     bd0:	e0 93 8d 05 	sts	0x058D, r30
     bd4:	96 87       	std	Z+14, r25	; 0x0e
     bd6:	85 87       	std	Z+13, r24	; 0x0d
     bd8:	8f ef       	ldi	r24, 0xFF	; 255
     bda:	90 e0       	ldi	r25, 0x00	; 0
     bdc:	02 c0       	rjmp	.+4      	; 0xbe2 <ramdisk_erase+0x106>
     bde:	80 e0       	ldi	r24, 0x00	; 0
     be0:	90 e0       	ldi	r25, 0x00	; 0
     be2:	2f 96       	adiw	r28, 0x0f	; 15
     be4:	0f b6       	in	r0, 0x3f	; 63
     be6:	f8 94       	cli
     be8:	de bf       	out	0x3e, r29	; 62
     bea:	0f be       	out	0x3f, r0	; 63
     bec:	cd bf       	out	0x3d, r28	; 61
     bee:	df 91       	pop	r29
     bf0:	cf 91       	pop	r28
     bf2:	1f 91       	pop	r17
     bf4:	0f 91       	pop	r16
     bf6:	ff 90       	pop	r15
     bf8:	ef 90       	pop	r14
     bfa:	df 90       	pop	r13
     bfc:	cf 90       	pop	r12
     bfe:	bf 90       	pop	r11
     c00:	af 90       	pop	r10
     c02:	9f 90       	pop	r9
     c04:	8f 90       	pop	r8
     c06:	7f 90       	pop	r7
     c08:	6f 90       	pop	r6
     c0a:	5f 90       	pop	r5
     c0c:	4f 90       	pop	r4
     c0e:	3f 90       	pop	r3
     c10:	2f 90       	pop	r2
     c12:	08 95       	ret

00000c14 <ramdisk_find>:
     c14:	6f 92       	push	r6
     c16:	7f 92       	push	r7
     c18:	8f 92       	push	r8
     c1a:	9f 92       	push	r9
     c1c:	af 92       	push	r10
     c1e:	bf 92       	push	r11
     c20:	cf 92       	push	r12
     c22:	df 92       	push	r13
     c24:	ef 92       	push	r14
     c26:	ff 92       	push	r15
     c28:	0f 93       	push	r16
     c2a:	1f 93       	push	r17
     c2c:	cf 93       	push	r28
     c2e:	df 93       	push	r29
     c30:	d9 01       	movw	r26, r18
     c32:	ea 01       	movw	r28, r20
     c34:	96 2e       	mov	r9, r22
     c36:	87 2e       	mov	r8, r23
     c38:	78 2e       	mov	r7, r24
     c3a:	69 2e       	mov	r6, r25
     c3c:	e0 91 8f 05 	lds	r30, 0x058F
     c40:	f0 91 90 05 	lds	r31, 0x0590
     c44:	21 81       	ldd	r18, Z+1	; 0x01
     c46:	32 81       	ldd	r19, Z+2	; 0x02
     c48:	43 81       	ldd	r20, Z+3	; 0x03
     c4a:	54 81       	ldd	r21, Z+4	; 0x04
     c4c:	65 81       	ldd	r22, Z+5	; 0x05
     c4e:	76 81       	ldd	r23, Z+6	; 0x06
     c50:	87 81       	ldd	r24, Z+7	; 0x07
     c52:	90 85       	ldd	r25, Z+8	; 0x08
     c54:	5d 01       	movw	r10, r26
     c56:	6e 01       	movw	r12, r28
     c58:	e9 2c       	mov	r14, r9
     c5a:	f8 2c       	mov	r15, r8
     c5c:	07 2d       	mov	r16, r7
     c5e:	16 2d       	mov	r17, r6
     c60:	0e 94 68 0b 	call	0x16d0	; 0x16d0 <__cmpdi2>
     c64:	31 f0       	breq	.+12     	; 0xc72 <ramdisk_find+0x5e>
     c66:	30 97       	sbiw	r30, 0x00	; 0
     c68:	21 f0       	breq	.+8      	; 0xc72 <ramdisk_find+0x5e>
     c6a:	05 84       	ldd	r0, Z+13	; 0x0d
     c6c:	f6 85       	ldd	r31, Z+14	; 0x0e
     c6e:	e0 2d       	mov	r30, r0
     c70:	e9 cf       	rjmp	.-46     	; 0xc44 <ramdisk_find+0x30>
     c72:	cf 01       	movw	r24, r30
     c74:	df 91       	pop	r29
     c76:	cf 91       	pop	r28
     c78:	1f 91       	pop	r17
     c7a:	0f 91       	pop	r16
     c7c:	ff 90       	pop	r15
     c7e:	ef 90       	pop	r14
     c80:	df 90       	pop	r13
     c82:	cf 90       	pop	r12
     c84:	bf 90       	pop	r11
     c86:	af 90       	pop	r10
     c88:	9f 90       	pop	r9
     c8a:	8f 90       	pop	r8
     c8c:	7f 90       	pop	r7
     c8e:	6f 90       	pop	r6
     c90:	08 95       	ret

00000c92 <ramdisk_next>:
     c92:	fc 01       	movw	r30, r24
     c94:	00 97       	sbiw	r24, 0x00	; 0
     c96:	29 f4       	brne	.+10     	; 0xca2 <ramdisk_next+0x10>
     c98:	80 91 8f 05 	lds	r24, 0x058F
     c9c:	90 91 90 05 	lds	r25, 0x0590
     ca0:	08 95       	ret
     ca2:	21 81       	ldd	r18, Z+1	; 0x01
     ca4:	32 81       	ldd	r19, Z+2	; 0x02
     ca6:	43 81       	ldd	r20, Z+3	; 0x03
     ca8:	54 81       	ldd	r21, Z+4	; 0x04
     caa:	65 81       	ldd	r22, Z+5	; 0x05
     cac:	76 81       	ldd	r23, Z+6	; 0x06
     cae:	87 81       	ldd	r24, Z+7	; 0x07
     cb0:	90 85       	ldd	r25, Z+8	; 0x08
     cb2:	0c 94 0a 06 	jmp	0xc14	; 0xc14 <ramdisk_find>

00000cb6 <queue_reset>:
     cb6:	fc 01       	movw	r30, r24
     cb8:	15 82       	std	Z+5, r1	; 0x05
     cba:	14 82       	std	Z+4, r1	; 0x04
     cbc:	17 82       	std	Z+7, r1	; 0x07
     cbe:	16 82       	std	Z+6, r1	; 0x06
     cc0:	13 82       	std	Z+3, r1	; 0x03
     cc2:	12 82       	std	Z+2, r1	; 0x02
     cc4:	11 86       	std	Z+9, r1	; 0x09
     cc6:	10 86       	std	Z+8, r1	; 0x08
     cc8:	13 86       	std	Z+11, r1	; 0x0b
     cca:	12 86       	std	Z+10, r1	; 0x0a
     ccc:	08 95       	ret

00000cce <queue_init>:
     cce:	fc 01       	movw	r30, r24
     cd0:	71 83       	std	Z+1, r23	; 0x01
     cd2:	60 83       	st	Z, r22
     cd4:	0c 94 5b 06 	jmp	0xcb6	; 0xcb6 <queue_reset>

00000cd8 <queue_enqueue>:
     cd8:	cf 92       	push	r12
     cda:	df 92       	push	r13
     cdc:	ef 92       	push	r14
     cde:	ff 92       	push	r15
     ce0:	1f 93       	push	r17
     ce2:	cf 93       	push	r28
     ce4:	df 93       	push	r29
     ce6:	00 d0       	rcall	.+0      	; 0xce8 <queue_enqueue+0x10>
     ce8:	00 d0       	rcall	.+0      	; 0xcea <queue_enqueue+0x12>
     cea:	cd b7       	in	r28, 0x3d	; 61
     cec:	de b7       	in	r29, 0x3e	; 62
     cee:	7c 01       	movw	r14, r24
     cf0:	dc 01       	movw	r26, r24
     cf2:	2d 91       	ld	r18, X+
     cf4:	3c 91       	ld	r19, X
     cf6:	11 97       	sbiw	r26, 0x01	; 1
     cf8:	21 15       	cp	r18, r1
     cfa:	31 05       	cpc	r19, r1
     cfc:	59 f0       	breq	.+22     	; 0xd14 <queue_enqueue+0x3c>
     cfe:	1a 96       	adiw	r26, 0x0a	; 10
     d00:	8d 91       	ld	r24, X+
     d02:	9c 91       	ld	r25, X
     d04:	1b 97       	sbiw	r26, 0x0b	; 11
     d06:	0a 96       	adiw	r24, 0x0a	; 10
     d08:	84 0f       	add	r24, r20
     d0a:	95 1f       	adc	r25, r21
     d0c:	28 17       	cp	r18, r24
     d0e:	39 07       	cpc	r19, r25
     d10:	08 f4       	brcc	.+2      	; 0xd14 <queue_enqueue+0x3c>
     d12:	65 c0       	rjmp	.+202    	; 0xdde <queue_enqueue+0x106>
     d14:	ca 01       	movw	r24, r20
     d16:	06 96       	adiw	r24, 0x06	; 6
     d18:	4b 83       	std	Y+3, r20	; 0x03
     d1a:	5c 83       	std	Y+4, r21	; 0x04
     d1c:	69 83       	std	Y+1, r22	; 0x01
     d1e:	7a 83       	std	Y+2, r23	; 0x02
     d20:	0e 94 7d 0b 	call	0x16fa	; 0x16fa <malloc>
     d24:	4b 81       	ldd	r20, Y+3	; 0x03
     d26:	5c 81       	ldd	r21, Y+4	; 0x04
     d28:	69 81       	ldd	r22, Y+1	; 0x01
     d2a:	7a 81       	ldd	r23, Y+2	; 0x02
     d2c:	00 97       	sbiw	r24, 0x00	; 0
     d2e:	09 f4       	brne	.+2      	; 0xd32 <queue_enqueue+0x5a>
     d30:	58 c0       	rjmp	.+176    	; 0xde2 <queue_enqueue+0x10a>
     d32:	f7 01       	movw	r30, r14
     d34:	24 81       	ldd	r18, Z+4	; 0x04
     d36:	35 81       	ldd	r19, Z+5	; 0x05
     d38:	23 2b       	or	r18, r19
     d3a:	69 f4       	brne	.+26     	; 0xd56 <queue_enqueue+0x7e>
     d3c:	95 83       	std	Z+5, r25	; 0x05
     d3e:	84 83       	std	Z+4, r24	; 0x04
     d40:	97 83       	std	Z+7, r25	; 0x07
     d42:	86 83       	std	Z+6, r24	; 0x06
     d44:	21 e0       	ldi	r18, 0x01	; 1
     d46:	30 e0       	ldi	r19, 0x00	; 0
     d48:	33 83       	std	Z+3, r19	; 0x03
     d4a:	22 83       	std	Z+2, r18	; 0x02
     d4c:	51 87       	std	Z+9, r21	; 0x09
     d4e:	40 87       	std	Z+8, r20	; 0x08
     d50:	e0 e0       	ldi	r30, 0x00	; 0
     d52:	f0 e0       	ldi	r31, 0x00	; 0
     d54:	1e c0       	rjmp	.+60     	; 0xd92 <queue_enqueue+0xba>
     d56:	d7 01       	movw	r26, r14
     d58:	06 80       	ldd	r0, Z+6	; 0x06
     d5a:	f7 81       	ldd	r31, Z+7	; 0x07
     d5c:	e0 2d       	mov	r30, r0
     d5e:	93 83       	std	Z+3, r25	; 0x03
     d60:	82 83       	std	Z+2, r24	; 0x02
     d62:	17 96       	adiw	r26, 0x07	; 7
     d64:	9c 93       	st	X, r25
     d66:	8e 93       	st	-X, r24
     d68:	16 97       	sbiw	r26, 0x06	; 6
     d6a:	12 96       	adiw	r26, 0x02	; 2
     d6c:	2d 91       	ld	r18, X+
     d6e:	3c 91       	ld	r19, X
     d70:	13 97       	sbiw	r26, 0x03	; 3
     d72:	2f 5f       	subi	r18, 0xFF	; 255
     d74:	3f 4f       	sbci	r19, 0xFF	; 255
     d76:	13 96       	adiw	r26, 0x03	; 3
     d78:	3c 93       	st	X, r19
     d7a:	2e 93       	st	-X, r18
     d7c:	12 97       	sbiw	r26, 0x02	; 2
     d7e:	18 96       	adiw	r26, 0x08	; 8
     d80:	2d 91       	ld	r18, X+
     d82:	3c 91       	ld	r19, X
     d84:	19 97       	sbiw	r26, 0x09	; 9
     d86:	24 0f       	add	r18, r20
     d88:	35 1f       	adc	r19, r21
     d8a:	19 96       	adiw	r26, 0x09	; 9
     d8c:	3c 93       	st	X, r19
     d8e:	2e 93       	st	-X, r18
     d90:	18 97       	sbiw	r26, 0x08	; 8
     d92:	d7 01       	movw	r26, r14
     d94:	12 96       	adiw	r26, 0x02	; 2
     d96:	cd 90       	ld	r12, X+
     d98:	dc 90       	ld	r13, X
     d9a:	13 97       	sbiw	r26, 0x03	; 3
     d9c:	1a e0       	ldi	r17, 0x0A	; 10
     d9e:	1c 9d       	mul	r17, r12
     da0:	90 01       	movw	r18, r0
     da2:	1d 9d       	mul	r17, r13
     da4:	30 0d       	add	r19, r0
     da6:	11 24       	eor	r1, r1
     da8:	18 96       	adiw	r26, 0x08	; 8
     daa:	cd 90       	ld	r12, X+
     dac:	dc 90       	ld	r13, X
     dae:	19 97       	sbiw	r26, 0x09	; 9
     db0:	2c 0d       	add	r18, r12
     db2:	3d 1d       	adc	r19, r13
     db4:	1b 96       	adiw	r26, 0x0b	; 11
     db6:	3c 93       	st	X, r19
     db8:	2e 93       	st	-X, r18
     dba:	1a 97       	sbiw	r26, 0x0a	; 10
     dbc:	dc 01       	movw	r26, r24
     dbe:	11 96       	adiw	r26, 0x01	; 1
     dc0:	fc 93       	st	X, r31
     dc2:	ee 93       	st	-X, r30
     dc4:	13 96       	adiw	r26, 0x03	; 3
     dc6:	1c 92       	st	X, r1
     dc8:	1e 92       	st	-X, r1
     dca:	12 97       	sbiw	r26, 0x02	; 2
     dcc:	15 96       	adiw	r26, 0x05	; 5
     dce:	5c 93       	st	X, r21
     dd0:	4e 93       	st	-X, r20
     dd2:	14 97       	sbiw	r26, 0x04	; 4
     dd4:	06 96       	adiw	r24, 0x06	; 6
     dd6:	0e 94 b1 0c 	call	0x1962	; 0x1962 <memcpy>
     dda:	8f ef       	ldi	r24, 0xFF	; 255
     ddc:	03 c0       	rjmp	.+6      	; 0xde4 <queue_enqueue+0x10c>
     dde:	82 e0       	ldi	r24, 0x02	; 2
     de0:	01 c0       	rjmp	.+2      	; 0xde4 <queue_enqueue+0x10c>
     de2:	81 e0       	ldi	r24, 0x01	; 1
     de4:	0f 90       	pop	r0
     de6:	0f 90       	pop	r0
     de8:	0f 90       	pop	r0
     dea:	0f 90       	pop	r0
     dec:	df 91       	pop	r29
     dee:	cf 91       	pop	r28
     df0:	1f 91       	pop	r17
     df2:	ff 90       	pop	r15
     df4:	ef 90       	pop	r14
     df6:	df 90       	pop	r13
     df8:	cf 90       	pop	r12
     dfa:	08 95       	ret

00000dfc <queue_dequeue>:
     dfc:	cf 92       	push	r12
     dfe:	df 92       	push	r13
     e00:	ef 92       	push	r14
     e02:	ff 92       	push	r15
     e04:	0f 93       	push	r16
     e06:	1f 93       	push	r17
     e08:	cf 93       	push	r28
     e0a:	df 93       	push	r29
     e0c:	ec 01       	movw	r28, r24
     e0e:	7b 01       	movw	r14, r22
     e10:	0c 81       	ldd	r16, Y+4	; 0x04
     e12:	1d 81       	ldd	r17, Y+5	; 0x05
     e14:	01 15       	cp	r16, r1
     e16:	11 05       	cpc	r17, r1
     e18:	09 f4       	brne	.+2      	; 0xe1c <queue_dequeue+0x20>
     e1a:	4b c0       	rjmp	.+150    	; 0xeb2 <queue_dequeue+0xb6>
     e1c:	d8 01       	movw	r26, r16
     e1e:	14 96       	adiw	r26, 0x04	; 4
     e20:	cd 90       	ld	r12, X+
     e22:	dc 90       	ld	r13, X
     e24:	15 97       	sbiw	r26, 0x05	; 5
     e26:	c6 01       	movw	r24, r12
     e28:	0e 94 7d 0b 	call	0x16fa	; 0x16fa <malloc>
     e2c:	f7 01       	movw	r30, r14
     e2e:	91 83       	std	Z+1, r25	; 0x01
     e30:	80 83       	st	Z, r24
     e32:	ef 28       	or	r14, r15
     e34:	09 f4       	brne	.+2      	; 0xe38 <queue_dequeue+0x3c>
     e36:	3f c0       	rjmp	.+126    	; 0xeb6 <queue_dequeue+0xba>
     e38:	a6 01       	movw	r20, r12
     e3a:	b8 01       	movw	r22, r16
     e3c:	6a 5f       	subi	r22, 0xFA	; 250
     e3e:	7f 4f       	sbci	r23, 0xFF	; 255
     e40:	0e 94 b1 0c 	call	0x1962	; 0x1962 <memcpy>
     e44:	d8 01       	movw	r26, r16
     e46:	12 96       	adiw	r26, 0x02	; 2
     e48:	ed 91       	ld	r30, X+
     e4a:	fc 91       	ld	r31, X
     e4c:	13 97       	sbiw	r26, 0x03	; 3
     e4e:	30 97       	sbiw	r30, 0x00	; 0
     e50:	49 f4       	brne	.+18     	; 0xe64 <queue_dequeue+0x68>
     e52:	1d 82       	std	Y+5, r1	; 0x05
     e54:	1c 82       	std	Y+4, r1	; 0x04
     e56:	1f 82       	std	Y+7, r1	; 0x07
     e58:	1e 82       	std	Y+6, r1	; 0x06
     e5a:	1b 82       	std	Y+3, r1	; 0x03
     e5c:	1a 82       	std	Y+2, r1	; 0x02
     e5e:	19 86       	std	Y+9, r1	; 0x09
     e60:	18 86       	std	Y+8, r1	; 0x08
     e62:	14 c0       	rjmp	.+40     	; 0xe8c <queue_dequeue+0x90>
     e64:	fd 83       	std	Y+5, r31	; 0x05
     e66:	ec 83       	std	Y+4, r30	; 0x04
     e68:	8a 81       	ldd	r24, Y+2	; 0x02
     e6a:	9b 81       	ldd	r25, Y+3	; 0x03
     e6c:	01 97       	sbiw	r24, 0x01	; 1
     e6e:	9b 83       	std	Y+3, r25	; 0x03
     e70:	8a 83       	std	Y+2, r24	; 0x02
     e72:	88 85       	ldd	r24, Y+8	; 0x08
     e74:	99 85       	ldd	r25, Y+9	; 0x09
     e76:	d8 01       	movw	r26, r16
     e78:	14 96       	adiw	r26, 0x04	; 4
     e7a:	2d 91       	ld	r18, X+
     e7c:	3c 91       	ld	r19, X
     e7e:	15 97       	sbiw	r26, 0x05	; 5
     e80:	82 1b       	sub	r24, r18
     e82:	93 0b       	sbc	r25, r19
     e84:	99 87       	std	Y+9, r25	; 0x09
     e86:	88 87       	std	Y+8, r24	; 0x08
     e88:	11 82       	std	Z+1, r1	; 0x01
     e8a:	10 82       	st	Z, r1
     e8c:	2a 81       	ldd	r18, Y+2	; 0x02
     e8e:	3b 81       	ldd	r19, Y+3	; 0x03
     e90:	4a e0       	ldi	r20, 0x0A	; 10
     e92:	42 9f       	mul	r20, r18
     e94:	c0 01       	movw	r24, r0
     e96:	43 9f       	mul	r20, r19
     e98:	90 0d       	add	r25, r0
     e9a:	11 24       	eor	r1, r1
     e9c:	28 85       	ldd	r18, Y+8	; 0x08
     e9e:	39 85       	ldd	r19, Y+9	; 0x09
     ea0:	82 0f       	add	r24, r18
     ea2:	93 1f       	adc	r25, r19
     ea4:	9b 87       	std	Y+11, r25	; 0x0b
     ea6:	8a 87       	std	Y+10, r24	; 0x0a
     ea8:	c8 01       	movw	r24, r16
     eaa:	0e 94 15 0c 	call	0x182a	; 0x182a <free>
     eae:	8f ef       	ldi	r24, 0xFF	; 255
     eb0:	03 c0       	rjmp	.+6      	; 0xeb8 <queue_dequeue+0xbc>
     eb2:	83 e0       	ldi	r24, 0x03	; 3
     eb4:	01 c0       	rjmp	.+2      	; 0xeb8 <queue_dequeue+0xbc>
     eb6:	81 e0       	ldi	r24, 0x01	; 1
     eb8:	df 91       	pop	r29
     eba:	cf 91       	pop	r28
     ebc:	1f 91       	pop	r17
     ebe:	0f 91       	pop	r16
     ec0:	ff 90       	pop	r15
     ec2:	ef 90       	pop	r14
     ec4:	df 90       	pop	r13
     ec6:	cf 90       	pop	r12
     ec8:	08 95       	ret

00000eca <queue_find>:
     eca:	cf 92       	push	r12
     ecc:	df 92       	push	r13
     ece:	ef 92       	push	r14
     ed0:	ff 92       	push	r15
     ed2:	0f 93       	push	r16
     ed4:	1f 93       	push	r17
     ed6:	cf 93       	push	r28
     ed8:	df 93       	push	r29
     eda:	7b 01       	movw	r14, r22
     edc:	6a 01       	movw	r12, r20
     ede:	89 01       	movw	r16, r18
     ee0:	fc 01       	movw	r30, r24
     ee2:	22 81       	ldd	r18, Z+2	; 0x02
     ee4:	33 81       	ldd	r19, Z+3	; 0x03
     ee6:	23 2b       	or	r18, r19
     ee8:	29 f4       	brne	.+10     	; 0xef4 <queue_find+0x2a>
     eea:	f8 01       	movw	r30, r16
     eec:	11 82       	std	Z+1, r1	; 0x01
     eee:	10 82       	st	Z, r1
     ef0:	83 e0       	ldi	r24, 0x03	; 3
     ef2:	17 c0       	rjmp	.+46     	; 0xf22 <queue_find+0x58>
     ef4:	fc 01       	movw	r30, r24
     ef6:	c4 81       	ldd	r28, Z+4	; 0x04
     ef8:	d5 81       	ldd	r29, Z+5	; 0x05
     efa:	20 97       	sbiw	r28, 0x00	; 0
     efc:	89 f0       	breq	.+34     	; 0xf20 <queue_find+0x56>
     efe:	a6 01       	movw	r20, r12
     f00:	b7 01       	movw	r22, r14
     f02:	ce 01       	movw	r24, r28
     f04:	06 96       	adiw	r24, 0x06	; 6
     f06:	0e 94 a4 0c 	call	0x1948	; 0x1948 <memcmp>
     f0a:	81 11       	cpse	r24, r1
     f0c:	05 c0       	rjmp	.+10     	; 0xf18 <queue_find+0x4e>
     f0e:	f8 01       	movw	r30, r16
     f10:	d1 83       	std	Z+1, r29	; 0x01
     f12:	c0 83       	st	Z, r28
     f14:	8f ef       	ldi	r24, 0xFF	; 255
     f16:	05 c0       	rjmp	.+10     	; 0xf22 <queue_find+0x58>
     f18:	0a 80       	ldd	r0, Y+2	; 0x02
     f1a:	db 81       	ldd	r29, Y+3	; 0x03
     f1c:	c0 2d       	mov	r28, r0
     f1e:	ed cf       	rjmp	.-38     	; 0xefa <queue_find+0x30>
     f20:	84 e0       	ldi	r24, 0x04	; 4
     f22:	df 91       	pop	r29
     f24:	cf 91       	pop	r28
     f26:	1f 91       	pop	r17
     f28:	0f 91       	pop	r16
     f2a:	ff 90       	pop	r15
     f2c:	ef 90       	pop	r14
     f2e:	df 90       	pop	r13
     f30:	cf 90       	pop	r12
     f32:	08 95       	ret

00000f34 <queue_remove>:
     f34:	cf 93       	push	r28
     f36:	df 93       	push	r29
     f38:	ec 01       	movw	r28, r24
     f3a:	cb 01       	movw	r24, r22
     f3c:	2a 81       	ldd	r18, Y+2	; 0x02
     f3e:	3b 81       	ldd	r19, Y+3	; 0x03
     f40:	21 15       	cp	r18, r1
     f42:	31 05       	cpc	r19, r1
     f44:	09 f4       	brne	.+2      	; 0xf48 <queue_remove+0x14>
     f46:	42 c0       	rjmp	.+132    	; 0xfcc <queue_remove+0x98>
     f48:	21 30       	cpi	r18, 0x01	; 1
     f4a:	31 05       	cpc	r19, r1
     f4c:	31 f4       	brne	.+12     	; 0xf5a <queue_remove+0x26>
     f4e:	0e 94 15 0c 	call	0x182a	; 0x182a <free>
     f52:	ce 01       	movw	r24, r28
     f54:	0e 94 5b 06 	call	0xcb6	; 0xcb6 <queue_reset>
     f58:	37 c0       	rjmp	.+110    	; 0xfc8 <queue_remove+0x94>
     f5a:	db 01       	movw	r26, r22
     f5c:	ed 91       	ld	r30, X+
     f5e:	fc 91       	ld	r31, X
     f60:	11 97       	sbiw	r26, 0x01	; 1
     f62:	12 96       	adiw	r26, 0x02	; 2
     f64:	4d 91       	ld	r20, X+
     f66:	5c 91       	ld	r21, X
     f68:	13 97       	sbiw	r26, 0x03	; 3
     f6a:	30 97       	sbiw	r30, 0x00	; 0
     f6c:	19 f0       	breq	.+6      	; 0xf74 <queue_remove+0x40>
     f6e:	53 83       	std	Z+3, r21	; 0x03
     f70:	42 83       	std	Z+2, r20	; 0x02
     f72:	02 c0       	rjmp	.+4      	; 0xf78 <queue_remove+0x44>
     f74:	5d 83       	std	Y+5, r21	; 0x05
     f76:	4c 83       	std	Y+4, r20	; 0x04
     f78:	dc 01       	movw	r26, r24
     f7a:	12 96       	adiw	r26, 0x02	; 2
     f7c:	4d 91       	ld	r20, X+
     f7e:	5c 91       	ld	r21, X
     f80:	13 97       	sbiw	r26, 0x03	; 3
     f82:	41 15       	cp	r20, r1
     f84:	51 05       	cpc	r21, r1
     f86:	21 f0       	breq	.+8      	; 0xf90 <queue_remove+0x5c>
     f88:	da 01       	movw	r26, r20
     f8a:	ed 93       	st	X+, r30
     f8c:	fc 93       	st	X, r31
     f8e:	02 c0       	rjmp	.+4      	; 0xf94 <queue_remove+0x60>
     f90:	ff 83       	std	Y+7, r31	; 0x07
     f92:	ee 83       	std	Y+6, r30	; 0x06
     f94:	b9 01       	movw	r22, r18
     f96:	61 50       	subi	r22, 0x01	; 1
     f98:	71 09       	sbc	r23, r1
     f9a:	7b 83       	std	Y+3, r23	; 0x03
     f9c:	6a 83       	std	Y+2, r22	; 0x02
     f9e:	28 85       	ldd	r18, Y+8	; 0x08
     fa0:	39 85       	ldd	r19, Y+9	; 0x09
     fa2:	fc 01       	movw	r30, r24
     fa4:	44 81       	ldd	r20, Z+4	; 0x04
     fa6:	55 81       	ldd	r21, Z+5	; 0x05
     fa8:	24 1b       	sub	r18, r20
     faa:	35 0b       	sbc	r19, r21
     fac:	39 87       	std	Y+9, r19	; 0x09
     fae:	28 87       	std	Y+8, r18	; 0x08
     fb0:	ea e0       	ldi	r30, 0x0A	; 10
     fb2:	e6 9f       	mul	r30, r22
     fb4:	a0 01       	movw	r20, r0
     fb6:	e7 9f       	mul	r30, r23
     fb8:	50 0d       	add	r21, r0
     fba:	11 24       	eor	r1, r1
     fbc:	42 0f       	add	r20, r18
     fbe:	53 1f       	adc	r21, r19
     fc0:	5b 87       	std	Y+11, r21	; 0x0b
     fc2:	4a 87       	std	Y+10, r20	; 0x0a
     fc4:	0e 94 15 0c 	call	0x182a	; 0x182a <free>
     fc8:	8f ef       	ldi	r24, 0xFF	; 255
     fca:	01 c0       	rjmp	.+2      	; 0xfce <queue_remove+0x9a>
     fcc:	83 e0       	ldi	r24, 0x03	; 3
     fce:	df 91       	pop	r29
     fd0:	cf 91       	pop	r28
     fd2:	08 95       	ret

00000fd4 <queue_peek_length>:
     fd4:	dc 01       	movw	r26, r24
     fd6:	14 96       	adiw	r26, 0x04	; 4
     fd8:	ed 91       	ld	r30, X+
     fda:	fc 91       	ld	r31, X
     fdc:	15 97       	sbiw	r26, 0x05	; 5
     fde:	30 97       	sbiw	r30, 0x00	; 0
     fe0:	39 f0       	breq	.+14     	; 0xff0 <queue_peek_length+0x1c>
     fe2:	84 81       	ldd	r24, Z+4	; 0x04
     fe4:	95 81       	ldd	r25, Z+5	; 0x05
     fe6:	fb 01       	movw	r30, r22
     fe8:	91 83       	std	Z+1, r25	; 0x01
     fea:	80 83       	st	Z, r24
     fec:	8f ef       	ldi	r24, 0xFF	; 255
     fee:	08 95       	ret
     ff0:	83 e0       	ldi	r24, 0x03	; 3
     ff2:	08 95       	ret

00000ff4 <queue_clear>:
     ff4:	0f 93       	push	r16
     ff6:	1f 93       	push	r17
     ff8:	cf 93       	push	r28
     ffa:	df 93       	push	r29
     ffc:	ec 01       	movw	r28, r24
     ffe:	ec 81       	ldd	r30, Y+4	; 0x04
    1000:	fd 81       	ldd	r31, Y+5	; 0x05
    1002:	30 97       	sbiw	r30, 0x00	; 0
    1004:	39 f0       	breq	.+14     	; 0x1014 <queue_clear+0x20>
    1006:	02 81       	ldd	r16, Z+2	; 0x02
    1008:	13 81       	ldd	r17, Z+3	; 0x03
    100a:	cf 01       	movw	r24, r30
    100c:	0e 94 15 0c 	call	0x182a	; 0x182a <free>
    1010:	f8 01       	movw	r30, r16
    1012:	f7 cf       	rjmp	.-18     	; 0x1002 <queue_clear+0xe>
    1014:	ce 01       	movw	r24, r28
    1016:	0e 94 5b 06 	call	0xcb6	; 0xcb6 <queue_reset>
    101a:	8f ef       	ldi	r24, 0xFF	; 255
    101c:	df 91       	pop	r29
    101e:	cf 91       	pop	r28
    1020:	1f 91       	pop	r17
    1022:	0f 91       	pop	r16
    1024:	08 95       	ret

00001026 <eeprom_read>:
    1026:	0c 94 74 0f 	jmp	0x1ee8	; 0x1ee8 <__eerd_byte_m1284p>

0000102a <eeprom_write>:
    102a:	0c 94 7c 0f 	jmp	0x1ef8	; 0x1ef8 <__eewr_byte_m1284p>

0000102e <btle_set_cts>:
    102e:	5d 98       	cbi	0x0b, 5	; 11
    1030:	08 95       	ret

00001032 <btle_init>:
    1032:	55 9a       	sbi	0x0a, 5	; 10
    1034:	54 98       	cbi	0x0a, 4	; 10
    1036:	0e 94 0e 09 	call	0x121c	; 0x121c <btle_driver_init>
    103a:	0c 94 17 08 	jmp	0x102e	; 0x102e <btle_set_cts>

0000103e <btle_get_rts>:
    103e:	89 b1       	in	r24, 0x09	; 9
    1040:	80 71       	andi	r24, 0x10	; 16
    1042:	08 95       	ret

00001044 <build_app_msg>:
    1044:	cf 93       	push	r28
    1046:	df 93       	push	r29
    1048:	dc 01       	movw	r26, r24
    104a:	fb 01       	movw	r30, r22
    104c:	81 e0       	ldi	r24, 0x01	; 1
    104e:	80 83       	st	Z, r24
    1050:	81 83       	std	Z+1, r24	; 0x01
    1052:	11 96       	adiw	r26, 0x01	; 1
    1054:	8c 91       	ld	r24, X
    1056:	11 97       	sbiw	r26, 0x01	; 1
    1058:	82 83       	std	Z+2, r24	; 0x02
    105a:	12 96       	adiw	r26, 0x02	; 2
    105c:	8c 91       	ld	r24, X
    105e:	12 97       	sbiw	r26, 0x02	; 2
    1060:	83 83       	std	Z+3, r24	; 0x03
    1062:	13 96       	adiw	r26, 0x03	; 3
    1064:	8c 91       	ld	r24, X
    1066:	13 97       	sbiw	r26, 0x03	; 3
    1068:	84 83       	std	Z+4, r24	; 0x04
    106a:	14 96       	adiw	r26, 0x04	; 4
    106c:	8c 91       	ld	r24, X
    106e:	14 97       	sbiw	r26, 0x04	; 4
    1070:	85 83       	std	Z+5, r24	; 0x05
    1072:	15 96       	adiw	r26, 0x05	; 5
    1074:	8c 91       	ld	r24, X
    1076:	15 97       	sbiw	r26, 0x05	; 5
    1078:	86 83       	std	Z+6, r24	; 0x06
    107a:	16 96       	adiw	r26, 0x06	; 6
    107c:	8c 91       	ld	r24, X
    107e:	16 97       	sbiw	r26, 0x06	; 6
    1080:	87 83       	std	Z+7, r24	; 0x07
    1082:	17 96       	adiw	r26, 0x07	; 7
    1084:	8c 91       	ld	r24, X
    1086:	17 97       	sbiw	r26, 0x07	; 7
    1088:	80 87       	std	Z+8, r24	; 0x08
    108a:	18 96       	adiw	r26, 0x08	; 8
    108c:	8c 91       	ld	r24, X
    108e:	18 97       	sbiw	r26, 0x08	; 8
    1090:	81 87       	std	Z+9, r24	; 0x09
    1092:	90 91 50 09 	lds	r25, 0x0950
    1096:	80 91 51 09 	lds	r24, 0x0951
    109a:	d0 91 52 09 	lds	r29, 0x0952
    109e:	c0 91 53 09 	lds	r28, 0x0953
    10a2:	70 91 54 09 	lds	r23, 0x0954
    10a6:	60 91 55 09 	lds	r22, 0x0955
    10aa:	50 91 56 09 	lds	r21, 0x0956
    10ae:	40 91 57 09 	lds	r20, 0x0957
    10b2:	9c 01       	movw	r18, r24
    10b4:	32 87       	std	Z+10, r19	; 0x0a
    10b6:	23 87       	std	Z+11, r18	; 0x0b
    10b8:	94 87       	std	Z+12, r25	; 0x0c
    10ba:	85 87       	std	Z+13, r24	; 0x0d
    10bc:	d6 87       	std	Z+14, r29	; 0x0e
    10be:	c7 87       	std	Z+15, r28	; 0x0f
    10c0:	70 8b       	std	Z+16, r23	; 0x10
    10c2:	61 8b       	std	Z+17, r22	; 0x11
    10c4:	52 8b       	std	Z+18, r21	; 0x12
    10c6:	43 8b       	std	Z+19, r20	; 0x13
    10c8:	83 e7       	ldi	r24, 0x73	; 115
    10ca:	99 e1       	ldi	r25, 0x19	; 25
    10cc:	95 8b       	std	Z+21, r25	; 0x15
    10ce:	84 8b       	std	Z+20, r24	; 0x14
    10d0:	86 e1       	ldi	r24, 0x16	; 22
    10d2:	86 8b       	std	Z+22, r24	; 0x16
    10d4:	81 e0       	ldi	r24, 0x01	; 1
    10d6:	90 e0       	ldi	r25, 0x00	; 0
    10d8:	90 8f       	std	Z+24, r25	; 0x18
    10da:	87 8b       	std	Z+23, r24	; 0x17
    10dc:	11 8e       	std	Z+25, r1	; 0x19
    10de:	8c 91       	ld	r24, X
    10e0:	82 8f       	std	Z+26, r24	; 0x1a
    10e2:	19 96       	adiw	r26, 0x09	; 9
    10e4:	4d 91       	ld	r20, X+
    10e6:	5c 91       	ld	r21, X
    10e8:	1a 97       	sbiw	r26, 0x0a	; 10
    10ea:	60 e0       	ldi	r22, 0x00	; 0
    10ec:	70 e0       	ldi	r23, 0x00	; 0
    10ee:	44 8f       	std	Z+28, r20	; 0x1c
    10f0:	55 8f       	std	Z+29, r21	; 0x1d
    10f2:	66 8f       	std	Z+30, r22	; 0x1e
    10f4:	77 8f       	std	Z+31, r23	; 0x1f
    10f6:	1b 96       	adiw	r26, 0x0b	; 11
    10f8:	8d 91       	ld	r24, X+
    10fa:	9c 91       	ld	r25, X
    10fc:	1c 97       	sbiw	r26, 0x0c	; 12
    10fe:	a0 e0       	ldi	r26, 0x00	; 0
    1100:	b0 e0       	ldi	r27, 0x00	; 0
    1102:	80 a3       	std	Z+32, r24	; 0x20
    1104:	91 a3       	std	Z+33, r25	; 0x21
    1106:	a2 a3       	std	Z+34, r26	; 0x22
    1108:	b3 a3       	std	Z+35, r27	; 0x23
    110a:	df 91       	pop	r29
    110c:	cf 91       	pop	r28
    110e:	08 95       	ret

00001110 <btle_tick>:
    1110:	8f 92       	push	r8
    1112:	9f 92       	push	r9
    1114:	af 92       	push	r10
    1116:	bf 92       	push	r11
    1118:	cf 92       	push	r12
    111a:	df 92       	push	r13
    111c:	ef 92       	push	r14
    111e:	ff 92       	push	r15
    1120:	0f 93       	push	r16
    1122:	1f 93       	push	r17
    1124:	cf 93       	push	r28
    1126:	df 93       	push	r29
    1128:	cd b7       	in	r28, 0x3d	; 61
    112a:	de b7       	in	r29, 0x3e	; 62
    112c:	c5 57       	subi	r28, 0x75	; 117
    112e:	d1 09       	sbc	r29, r1
    1130:	0f b6       	in	r0, 0x3f	; 63
    1132:	f8 94       	cli
    1134:	de bf       	out	0x3e, r29	; 62
    1136:	0f be       	out	0x3f, r0	; 63
    1138:	cd bf       	out	0x3d, r28	; 61
    113a:	0e 94 27 09 	call	0x124e	; 0x124e <btle_driver_tick>
    113e:	80 e0       	ldi	r24, 0x00	; 0
    1140:	90 e0       	ldi	r25, 0x00	; 0
    1142:	0e 94 49 06 	call	0xc92	; 0xc92 <ramdisk_next>
    1146:	4c 01       	movw	r8, r24
    1148:	00 97       	sbiw	r24, 0x00	; 0
    114a:	d9 f1       	breq	.+118    	; 0x11c2 <btle_tick+0xb2>
    114c:	be 01       	movw	r22, r28
    114e:	6f 5a       	subi	r22, 0xAF	; 175
    1150:	7f 4f       	sbci	r23, 0xFF	; 255
    1152:	0e 94 22 08 	call	0x1044	; 0x1044 <build_app_msg>
    1156:	8b e2       	ldi	r24, 0x2B	; 43
    1158:	89 83       	std	Y+1, r24	; 0x01
    115a:	81 e0       	ldi	r24, 0x01	; 1
    115c:	8a 83       	std	Y+2, r24	; 0x02
    115e:	83 e7       	ldi	r24, 0x73	; 115
    1160:	8b 83       	std	Y+3, r24	; 0x03
    1162:	89 e1       	ldi	r24, 0x19	; 25
    1164:	8c 83       	std	Y+4, r24	; 0x04
    1166:	1d 82       	std	Y+5, r1	; 0x05
    1168:	85 e2       	ldi	r24, 0x25	; 37
    116a:	8e 83       	std	Y+6, r24	; 0x06
    116c:	fe 01       	movw	r30, r28
    116e:	ef 5a       	subi	r30, 0xAF	; 175
    1170:	ff 4f       	sbci	r31, 0xFF	; 255
    1172:	de 01       	movw	r26, r28
    1174:	17 96       	adiw	r26, 0x07	; 7
    1176:	cf 01       	movw	r24, r30
    1178:	85 96       	adiw	r24, 0x25	; 37
    117a:	e8 17       	cp	r30, r24
    117c:	f9 07       	cpc	r31, r25
    117e:	19 f0       	breq	.+6      	; 0x1186 <btle_tick+0x76>
    1180:	21 91       	ld	r18, Z+
    1182:	2d 93       	st	X+, r18
    1184:	fa cf       	rjmp	.-12     	; 0x117a <btle_tick+0x6a>
    1186:	8f ef       	ldi	r24, 0xFF	; 255
    1188:	8c a7       	std	Y+44, r24	; 0x2c
    118a:	8d a7       	std	Y+45, r24	; 0x2d
    118c:	6d e2       	ldi	r22, 0x2D	; 45
    118e:	70 e0       	ldi	r23, 0x00	; 0
    1190:	ce 01       	movw	r24, r28
    1192:	01 96       	adiw	r24, 0x01	; 1
    1194:	0e 94 8e 04 	call	0x91c	; 0x91c <wan_usart_transmit_bytes>
    1198:	8b b1       	in	r24, 0x0b	; 11
    119a:	80 58       	subi	r24, 0x80	; 128
    119c:	8b b9       	out	0x0b, r24	; 11
    119e:	f4 01       	movw	r30, r8
    11a0:	a0 80       	ld	r10, Z
    11a2:	b1 80       	ldd	r11, Z+1	; 0x01
    11a4:	c2 80       	ldd	r12, Z+2	; 0x02
    11a6:	d3 80       	ldd	r13, Z+3	; 0x03
    11a8:	e4 80       	ldd	r14, Z+4	; 0x04
    11aa:	f5 80       	ldd	r15, Z+5	; 0x05
    11ac:	06 81       	ldd	r16, Z+6	; 0x06
    11ae:	17 81       	ldd	r17, Z+7	; 0x07
    11b0:	20 85       	ldd	r18, Z+8	; 0x08
    11b2:	31 85       	ldd	r19, Z+9	; 0x09
    11b4:	42 85       	ldd	r20, Z+10	; 0x0a
    11b6:	53 85       	ldd	r21, Z+11	; 0x0b
    11b8:	64 85       	ldd	r22, Z+12	; 0x0c
    11ba:	75 85       	ldd	r23, Z+13	; 0x0d
    11bc:	86 85       	ldd	r24, Z+14	; 0x0e
    11be:	0e 94 6e 05 	call	0xadc	; 0xadc <ramdisk_erase>
    11c2:	cb 58       	subi	r28, 0x8B	; 139
    11c4:	df 4f       	sbci	r29, 0xFF	; 255
    11c6:	0f b6       	in	r0, 0x3f	; 63
    11c8:	f8 94       	cli
    11ca:	de bf       	out	0x3e, r29	; 62
    11cc:	0f be       	out	0x3f, r0	; 63
    11ce:	cd bf       	out	0x3d, r28	; 61
    11d0:	df 91       	pop	r29
    11d2:	cf 91       	pop	r28
    11d4:	1f 91       	pop	r17
    11d6:	0f 91       	pop	r16
    11d8:	ff 90       	pop	r15
    11da:	ef 90       	pop	r14
    11dc:	df 90       	pop	r13
    11de:	cf 90       	pop	r12
    11e0:	bf 90       	pop	r11
    11e2:	af 90       	pop	r10
    11e4:	9f 90       	pop	r9
    11e6:	8f 90       	pop	r8
    11e8:	08 95       	ret

000011ea <btle_enqueue>:
    11ea:	4f e0       	ldi	r20, 0x0F	; 15
    11ec:	50 e0       	ldi	r21, 0x00	; 0
    11ee:	bc 01       	movw	r22, r24
    11f0:	82 e4       	ldi	r24, 0x42	; 66
    11f2:	98 e0       	ldi	r25, 0x08	; 8
    11f4:	0c 94 6c 06 	jmp	0xcd8	; 0xcd8 <queue_enqueue>

000011f8 <btle_parse_nybble>:
    11f8:	9f eb       	ldi	r25, 0xBF	; 191
    11fa:	98 0f       	add	r25, r24
    11fc:	96 30       	cpi	r25, 0x06	; 6
    11fe:	08 f4       	brcc	.+2      	; 0x1202 <btle_parse_nybble+0xa>
    1200:	80 62       	ori	r24, 0x20	; 32
    1202:	e7 e1       	ldi	r30, 0x17	; 23
    1204:	f1 e0       	ldi	r31, 0x01	; 1
    1206:	90 e0       	ldi	r25, 0x00	; 0
    1208:	21 91       	ld	r18, Z+
    120a:	28 17       	cp	r18, r24
    120c:	29 f0       	breq	.+10     	; 0x1218 <btle_parse_nybble+0x20>
    120e:	9f 5f       	subi	r25, 0xFF	; 255
    1210:	90 31       	cpi	r25, 0x10	; 16
    1212:	d1 f7       	brne	.-12     	; 0x1208 <btle_parse_nybble+0x10>
    1214:	80 e8       	ldi	r24, 0x80	; 128
    1216:	08 95       	ret
    1218:	89 2f       	mov	r24, r25
    121a:	08 95       	ret

0000121c <btle_driver_init>:
    121c:	60 e0       	ldi	r22, 0x00	; 0
    121e:	70 e2       	ldi	r23, 0x20	; 32
    1220:	82 e4       	ldi	r24, 0x42	; 66
    1222:	98 e0       	ldi	r25, 0x08	; 8
    1224:	0e 94 67 06 	call	0xcce	; 0xcce <queue_init>
    1228:	10 92 09 07 	sts	0x0709, r1
    122c:	10 92 08 07 	sts	0x0708, r1
    1230:	81 e8       	ldi	r24, 0x81	; 129
    1232:	ef ec       	ldi	r30, 0xCF	; 207
    1234:	f8 e0       	ldi	r31, 0x08	; 8
    1236:	df 01       	movw	r26, r30
    1238:	98 2f       	mov	r25, r24
    123a:	1d 92       	st	X+, r1
    123c:	9a 95       	dec	r25
    123e:	e9 f7       	brne	.-6      	; 0x123a <btle_driver_init+0x1e>
    1240:	ee e4       	ldi	r30, 0x4E	; 78
    1242:	f8 e0       	ldi	r31, 0x08	; 8
    1244:	df 01       	movw	r26, r30
    1246:	1d 92       	st	X+, r1
    1248:	8a 95       	dec	r24
    124a:	e9 f7       	brne	.-6      	; 0x1246 <btle_driver_init+0x2a>
    124c:	08 95       	ret

0000124e <btle_driver_tick>:
    124e:	5f 92       	push	r5
    1250:	6f 92       	push	r6
    1252:	7f 92       	push	r7
    1254:	8f 92       	push	r8
    1256:	9f 92       	push	r9
    1258:	af 92       	push	r10
    125a:	bf 92       	push	r11
    125c:	cf 92       	push	r12
    125e:	df 92       	push	r13
    1260:	ef 92       	push	r14
    1262:	ff 92       	push	r15
    1264:	0f 93       	push	r16
    1266:	1f 93       	push	r17
    1268:	cf 93       	push	r28
    126a:	df 93       	push	r29
    126c:	cd b7       	in	r28, 0x3d	; 61
    126e:	de b7       	in	r29, 0x3e	; 62
    1270:	aa 97       	sbiw	r28, 0x2a	; 42
    1272:	0f b6       	in	r0, 0x3f	; 63
    1274:	f8 94       	cli
    1276:	de bf       	out	0x3e, r29	; 62
    1278:	0f be       	out	0x3f, r0	; 63
    127a:	cd bf       	out	0x3d, r28	; 61
    127c:	0e 94 bb 03 	call	0x776	; 0x776 <btle_usart_data_available>
    1280:	88 23       	and	r24, r24
    1282:	09 f4       	brne	.+2      	; 0x1286 <btle_driver_tick+0x38>
    1284:	57 c1       	rjmp	.+686    	; 0x1534 <btle_driver_tick+0x2e6>
    1286:	0e 94 c1 03 	call	0x782	; 0x782 <btle_usart_data_read>
    128a:	88 23       	and	r24, r24
    128c:	09 f4       	brne	.+2      	; 0x1290 <btle_driver_tick+0x42>
    128e:	52 c1       	rjmp	.+676    	; 0x1534 <btle_driver_tick+0x2e6>
    1290:	20 91 08 07 	lds	r18, 0x0708
    1294:	30 91 09 07 	lds	r19, 0x0709
    1298:	20 38       	cpi	r18, 0x80	; 128
    129a:	31 05       	cpc	r19, r1
    129c:	0c f0       	brlt	.+2      	; 0x12a0 <btle_driver_tick+0x52>
    129e:	4a c1       	rjmp	.+660    	; 0x1534 <btle_driver_tick+0x2e6>
    12a0:	f9 01       	movw	r30, r18
    12a2:	e1 53       	subi	r30, 0x31	; 49
    12a4:	f7 4f       	sbci	r31, 0xF7	; 247
    12a6:	80 83       	st	Z, r24
    12a8:	2f 5f       	subi	r18, 0xFF	; 255
    12aa:	3f 4f       	sbci	r19, 0xFF	; 255
    12ac:	30 93 09 07 	sts	0x0709, r19
    12b0:	20 93 08 07 	sts	0x0708, r18
    12b4:	8a 30       	cpi	r24, 0x0A	; 10
    12b6:	09 f0       	breq	.+2      	; 0x12ba <btle_driver_tick+0x6c>
    12b8:	3d c1       	rjmp	.+634    	; 0x1534 <btle_driver_tick+0x2e6>
    12ba:	6f ec       	ldi	r22, 0xCF	; 207
    12bc:	78 e0       	ldi	r23, 0x08	; 8
    12be:	8e e4       	ldi	r24, 0x4E	; 78
    12c0:	98 e0       	ldi	r25, 0x08	; 8
    12c2:	0e 94 c5 0c 	call	0x198a	; 0x198a <strcpy>
    12c6:	10 92 09 07 	sts	0x0709, r1
    12ca:	10 92 08 07 	sts	0x0708, r1
    12ce:	81 e8       	ldi	r24, 0x81	; 129
    12d0:	ef ec       	ldi	r30, 0xCF	; 207
    12d2:	f8 e0       	ldi	r31, 0x08	; 8
    12d4:	df 01       	movw	r26, r30
    12d6:	1d 92       	st	X+, r1
    12d8:	8a 95       	dec	r24
    12da:	e9 f7       	brne	.-6      	; 0x12d6 <btle_driver_tick+0x88>
    12dc:	6a e2       	ldi	r22, 0x2A	; 42
    12de:	70 e0       	ldi	r23, 0x00	; 0
    12e0:	8e e4       	ldi	r24, 0x4E	; 78
    12e2:	98 e0       	ldi	r25, 0x08	; 8
    12e4:	0e 94 ba 0c 	call	0x1974	; 0x1974 <strchr>
    12e8:	5c 01       	movw	r10, r24
    12ea:	00 97       	sbiw	r24, 0x00	; 0
    12ec:	09 f4       	brne	.+2      	; 0x12f0 <btle_driver_tick+0xa2>
    12ee:	22 c1       	rjmp	.+580    	; 0x1534 <btle_driver_tick+0x2e6>
    12f0:	fe 01       	movw	r30, r28
    12f2:	31 96       	adiw	r30, 0x01	; 1
    12f4:	4f 01       	movw	r8, r30
    12f6:	8f e0       	ldi	r24, 0x0F	; 15
    12f8:	df 01       	movw	r26, r30
    12fa:	1d 92       	st	X+, r1
    12fc:	8a 95       	dec	r24
    12fe:	e9 f7       	brne	.-6      	; 0x12fa <btle_driver_tick+0xac>
    1300:	f5 01       	movw	r30, r10
    1302:	83 8d       	ldd	r24, Z+27	; 0x1b
    1304:	0e 94 fc 08 	call	0x11f8	; 0x11f8 <btle_parse_nybble>
    1308:	18 2f       	mov	r17, r24
    130a:	d5 01       	movw	r26, r10
    130c:	5c 96       	adiw	r26, 0x1c	; 28
    130e:	8c 91       	ld	r24, X
    1310:	0e 94 fc 08 	call	0x11f8	; 0x11f8 <btle_parse_nybble>
    1314:	f5 01       	movw	r30, r10
    1316:	90 e0       	ldi	r25, 0x00	; 0
    1318:	20 e0       	ldi	r18, 0x00	; 0
    131a:	30 e0       	ldi	r19, 0x00	; 0
    131c:	41 91       	ld	r20, Z+
    131e:	94 27       	eor	r25, r20
    1320:	2f 5f       	subi	r18, 0xFF	; 255
    1322:	3f 4f       	sbci	r19, 0xFF	; 255
    1324:	2b 31       	cpi	r18, 0x1B	; 27
    1326:	31 05       	cpc	r19, r1
    1328:	c9 f7       	brne	.-14     	; 0x131c <btle_driver_tick+0xce>
    132a:	b0 e1       	ldi	r27, 0x10	; 16
    132c:	1b 9f       	mul	r17, r27
    132e:	90 01       	movw	r18, r0
    1330:	11 24       	eor	r1, r1
    1332:	28 2b       	or	r18, r24
    1334:	29 17       	cp	r18, r25
    1336:	79 f0       	breq	.+30     	; 0x1356 <btle_driver_tick+0x108>
    1338:	8f e0       	ldi	r24, 0x0F	; 15
    133a:	f4 01       	movw	r30, r8
    133c:	de 01       	movw	r26, r28
    133e:	50 96       	adiw	r26, 0x10	; 16
    1340:	01 90       	ld	r0, Z+
    1342:	0d 92       	st	X+, r0
    1344:	8a 95       	dec	r24
    1346:	e1 f7       	brne	.-8      	; 0x1340 <btle_driver_tick+0xf2>
    1348:	b1 2c       	mov	r11, r1
    134a:	c1 2c       	mov	r12, r1
    134c:	d1 2c       	mov	r13, r1
    134e:	e1 2c       	mov	r14, r1
    1350:	f1 2c       	mov	r15, r1
    1352:	00 e0       	ldi	r16, 0x00	; 0
    1354:	d1 c0       	rjmp	.+418    	; 0x14f8 <btle_driver_tick+0x2aa>
    1356:	1e a2       	std	Y+38, r1	; 0x26
    1358:	1d a2       	std	Y+37, r1	; 0x25
    135a:	f5 01       	movw	r30, r10
    135c:	81 81       	ldd	r24, Z+1	; 0x01
    135e:	0e 94 fc 08 	call	0x11f8	; 0x11f8 <btle_parse_nybble>
    1362:	08 2f       	mov	r16, r24
    1364:	d5 01       	movw	r26, r10
    1366:	12 96       	adiw	r26, 0x02	; 2
    1368:	8c 91       	ld	r24, X
    136a:	0e 94 fc 08 	call	0x11f8	; 0x11f8 <btle_parse_nybble>
    136e:	b0 e1       	ldi	r27, 0x10	; 16
    1370:	0b 9f       	mul	r16, r27
    1372:	80 01       	movw	r16, r0
    1374:	11 24       	eor	r1, r1
    1376:	08 2b       	or	r16, r24
    1378:	0c a3       	std	Y+36, r16	; 0x24
    137a:	f5 01       	movw	r30, r10
    137c:	83 81       	ldd	r24, Z+3	; 0x03
    137e:	0e 94 fc 08 	call	0x11f8	; 0x11f8 <btle_parse_nybble>
    1382:	18 2f       	mov	r17, r24
    1384:	d5 01       	movw	r26, r10
    1386:	14 96       	adiw	r26, 0x04	; 4
    1388:	8c 91       	ld	r24, X
    138a:	0e 94 fc 08 	call	0x11f8	; 0x11f8 <btle_parse_nybble>
    138e:	b0 e1       	ldi	r27, 0x10	; 16
    1390:	1b 9f       	mul	r17, r27
    1392:	b0 01       	movw	r22, r0
    1394:	11 24       	eor	r1, r1
    1396:	18 2f       	mov	r17, r24
    1398:	16 2b       	or	r17, r22
    139a:	1b a3       	std	Y+35, r17	; 0x23
    139c:	f5 01       	movw	r30, r10
    139e:	85 81       	ldd	r24, Z+5	; 0x05
    13a0:	0e 94 fc 08 	call	0x11f8	; 0x11f8 <btle_parse_nybble>
    13a4:	e8 2e       	mov	r14, r24
    13a6:	d5 01       	movw	r26, r10
    13a8:	16 96       	adiw	r26, 0x06	; 6
    13aa:	8c 91       	ld	r24, X
    13ac:	0e 94 fc 08 	call	0x11f8	; 0x11f8 <btle_parse_nybble>
    13b0:	b0 e1       	ldi	r27, 0x10	; 16
    13b2:	eb 9e       	mul	r14, r27
    13b4:	70 01       	movw	r14, r0
    13b6:	11 24       	eor	r1, r1
    13b8:	e8 2a       	or	r14, r24
    13ba:	ea a2       	std	Y+34, r14	; 0x22
    13bc:	f5 01       	movw	r30, r10
    13be:	87 81       	ldd	r24, Z+7	; 0x07
    13c0:	0e 94 fc 08 	call	0x11f8	; 0x11f8 <btle_parse_nybble>
    13c4:	f8 2e       	mov	r15, r24
    13c6:	d5 01       	movw	r26, r10
    13c8:	18 96       	adiw	r26, 0x08	; 8
    13ca:	8c 91       	ld	r24, X
    13cc:	0e 94 fc 08 	call	0x11f8	; 0x11f8 <btle_parse_nybble>
    13d0:	b0 e1       	ldi	r27, 0x10	; 16
    13d2:	fb 9e       	mul	r15, r27
    13d4:	a0 01       	movw	r20, r0
    13d6:	11 24       	eor	r1, r1
    13d8:	f8 2e       	mov	r15, r24
    13da:	f4 2a       	or	r15, r20
    13dc:	f9 a2       	std	Y+33, r15	; 0x21
    13de:	f5 01       	movw	r30, r10
    13e0:	81 85       	ldd	r24, Z+9	; 0x09
    13e2:	0e 94 fc 08 	call	0x11f8	; 0x11f8 <btle_parse_nybble>
    13e6:	c8 2e       	mov	r12, r24
    13e8:	d5 01       	movw	r26, r10
    13ea:	1a 96       	adiw	r26, 0x0a	; 10
    13ec:	8c 91       	ld	r24, X
    13ee:	0e 94 fc 08 	call	0x11f8	; 0x11f8 <btle_parse_nybble>
    13f2:	b0 e1       	ldi	r27, 0x10	; 16
    13f4:	cb 9e       	mul	r12, r27
    13f6:	60 01       	movw	r12, r0
    13f8:	11 24       	eor	r1, r1
    13fa:	c8 2a       	or	r12, r24
    13fc:	c8 a2       	std	Y+32, r12	; 0x20
    13fe:	f5 01       	movw	r30, r10
    1400:	83 85       	ldd	r24, Z+11	; 0x0b
    1402:	0e 94 fc 08 	call	0x11f8	; 0x11f8 <btle_parse_nybble>
    1406:	d8 2e       	mov	r13, r24
    1408:	d5 01       	movw	r26, r10
    140a:	1c 96       	adiw	r26, 0x0c	; 12
    140c:	8c 91       	ld	r24, X
    140e:	0e 94 fc 08 	call	0x11f8	; 0x11f8 <btle_parse_nybble>
    1412:	b0 e1       	ldi	r27, 0x10	; 16
    1414:	db 9e       	mul	r13, r27
    1416:	90 01       	movw	r18, r0
    1418:	11 24       	eor	r1, r1
    141a:	d8 2e       	mov	r13, r24
    141c:	d2 2a       	or	r13, r18
    141e:	df 8e       	std	Y+31, r13	; 0x1f
    1420:	f5 01       	movw	r30, r10
    1422:	86 85       	ldd	r24, Z+14	; 0x0e
    1424:	0e 94 fc 08 	call	0x11f8	; 0x11f8 <btle_parse_nybble>
    1428:	68 2e       	mov	r6, r24
    142a:	d5 01       	movw	r26, r10
    142c:	1f 96       	adiw	r26, 0x0f	; 15
    142e:	8c 91       	ld	r24, X
    1430:	0e 94 fc 08 	call	0x11f8	; 0x11f8 <btle_parse_nybble>
    1434:	78 2e       	mov	r7, r24
    1436:	f5 01       	movw	r30, r10
    1438:	81 89       	ldd	r24, Z+17	; 0x11
    143a:	0e 94 fc 08 	call	0x11f8	; 0x11f8 <btle_parse_nybble>
    143e:	58 2e       	mov	r5, r24
    1440:	d5 01       	movw	r26, r10
    1442:	52 96       	adiw	r26, 0x12	; 18
    1444:	8c 91       	ld	r24, X
    1446:	0e 94 fc 08 	call	0x11f8	; 0x11f8 <btle_parse_nybble>
    144a:	b0 e1       	ldi	r27, 0x10	; 16
    144c:	5b 9e       	mul	r5, r27
    144e:	f0 01       	movw	r30, r0
    1450:	11 24       	eor	r1, r1
    1452:	8e 2b       	or	r24, r30
    1454:	8f a3       	std	Y+39, r24	; 0x27
    1456:	f5 01       	movw	r30, r10
    1458:	83 89       	ldd	r24, Z+19	; 0x13
    145a:	0e 94 fc 08 	call	0x11f8	; 0x11f8 <btle_parse_nybble>
    145e:	58 2e       	mov	r5, r24
    1460:	d5 01       	movw	r26, r10
    1462:	54 96       	adiw	r26, 0x14	; 20
    1464:	8c 91       	ld	r24, X
    1466:	0e 94 fc 08 	call	0x11f8	; 0x11f8 <btle_parse_nybble>
    146a:	b0 e1       	ldi	r27, 0x10	; 16
    146c:	5b 9e       	mul	r5, r27
    146e:	f0 01       	movw	r30, r0
    1470:	11 24       	eor	r1, r1
    1472:	8e 2b       	or	r24, r30
    1474:	88 a7       	std	Y+40, r24	; 0x28
    1476:	f5 01       	movw	r30, r10
    1478:	86 89       	ldd	r24, Z+22	; 0x16
    147a:	0e 94 fc 08 	call	0x11f8	; 0x11f8 <btle_parse_nybble>
    147e:	58 2e       	mov	r5, r24
    1480:	d5 01       	movw	r26, r10
    1482:	57 96       	adiw	r26, 0x17	; 23
    1484:	8c 91       	ld	r24, X
    1486:	0e 94 fc 08 	call	0x11f8	; 0x11f8 <btle_parse_nybble>
    148a:	b0 e1       	ldi	r27, 0x10	; 16
    148c:	5b 9e       	mul	r5, r27
    148e:	f0 01       	movw	r30, r0
    1490:	11 24       	eor	r1, r1
    1492:	8e 2b       	or	r24, r30
    1494:	89 a7       	std	Y+41, r24	; 0x29
    1496:	f5 01       	movw	r30, r10
    1498:	80 8d       	ldd	r24, Z+24	; 0x18
    149a:	0e 94 fc 08 	call	0x11f8	; 0x11f8 <btle_parse_nybble>
    149e:	58 2e       	mov	r5, r24
    14a0:	d5 01       	movw	r26, r10
    14a2:	59 96       	adiw	r26, 0x19	; 25
    14a4:	8c 91       	ld	r24, X
    14a6:	0e 94 fc 08 	call	0x11f8	; 0x11f8 <btle_parse_nybble>
    14aa:	b0 e1       	ldi	r27, 0x10	; 16
    14ac:	5b 9e       	mul	r5, r27
    14ae:	f0 01       	movw	r30, r0
    14b0:	11 24       	eor	r1, r1
    14b2:	8e 2b       	or	r24, r30
    14b4:	8a a7       	std	Y+42, r24	; 0x2a
    14b6:	e0 e1       	ldi	r30, 0x10	; 16
    14b8:	6e 9e       	mul	r6, r30
    14ba:	a0 01       	movw	r20, r0
    14bc:	11 24       	eor	r1, r1
    14be:	47 29       	or	r20, r7
    14c0:	49 83       	std	Y+1, r20	; 0x01
    14c2:	bd 2c       	mov	r11, r13
    14c4:	df 2c       	mov	r13, r15
    14c6:	f1 2e       	mov	r15, r17
    14c8:	ba 82       	std	Y+2, r11	; 0x02
    14ca:	cb 82       	std	Y+3, r12	; 0x03
    14cc:	dc 82       	std	Y+4, r13	; 0x04
    14ce:	ed 82       	std	Y+5, r14	; 0x05
    14d0:	1e 83       	std	Y+6, r17	; 0x06
    14d2:	0f 83       	std	Y+7, r16	; 0x07
    14d4:	18 86       	std	Y+8, r1	; 0x08
    14d6:	19 86       	std	Y+9, r1	; 0x09
    14d8:	e9 a5       	ldd	r30, Y+41	; 0x29
    14da:	fa a5       	ldd	r31, Y+42	; 0x2a
    14dc:	fb 87       	std	Y+11, r31	; 0x0b
    14de:	ea 87       	std	Y+10, r30	; 0x0a
    14e0:	ef a1       	ldd	r30, Y+39	; 0x27
    14e2:	f8 a5       	ldd	r31, Y+40	; 0x28
    14e4:	fd 87       	std	Y+13, r31	; 0x0d
    14e6:	ec 87       	std	Y+12, r30	; 0x0c
    14e8:	8f e0       	ldi	r24, 0x0F	; 15
    14ea:	f4 01       	movw	r30, r8
    14ec:	de 01       	movw	r26, r28
    14ee:	50 96       	adiw	r26, 0x10	; 16
    14f0:	01 90       	ld	r0, Z+
    14f2:	0d 92       	st	X+, r0
    14f4:	8a 95       	dec	r24
    14f6:	e1 f7       	brne	.-8      	; 0x14f0 <btle_driver_tick+0x2a2>
    14f8:	2b 2d       	mov	r18, r11
    14fa:	3c 2d       	mov	r19, r12
    14fc:	4d 2d       	mov	r20, r13
    14fe:	5e 2d       	mov	r21, r14
    1500:	6f 2d       	mov	r22, r15
    1502:	70 2f       	mov	r23, r16
    1504:	80 e0       	ldi	r24, 0x00	; 0
    1506:	90 e0       	ldi	r25, 0x00	; 0
    1508:	a0 e0       	ldi	r26, 0x00	; 0
    150a:	0e 94 71 0b 	call	0x16e2	; 0x16e2 <__cmpdi2_s8>
    150e:	59 f0       	breq	.+22     	; 0x1526 <btle_driver_tick+0x2d8>
    1510:	a8 88       	ldd	r10, Y+16	; 0x10
    1512:	10 e0       	ldi	r17, 0x00	; 0
    1514:	20 e0       	ldi	r18, 0x00	; 0
    1516:	39 8d       	ldd	r19, Y+25	; 0x19
    1518:	4a 8d       	ldd	r20, Y+26	; 0x1a
    151a:	5b 8d       	ldd	r21, Y+27	; 0x1b
    151c:	6c 8d       	ldd	r22, Y+28	; 0x1c
    151e:	7d 8d       	ldd	r23, Y+29	; 0x1d
    1520:	8e 8d       	ldd	r24, Y+30	; 0x1e
    1522:	0e 94 ee 04 	call	0x9dc	; 0x9dc <ramdisk_write>
    1526:	81 e8       	ldi	r24, 0x81	; 129
    1528:	ee e4       	ldi	r30, 0x4E	; 78
    152a:	f8 e0       	ldi	r31, 0x08	; 8
    152c:	df 01       	movw	r26, r30
    152e:	1d 92       	st	X+, r1
    1530:	8a 95       	dec	r24
    1532:	e9 f7       	brne	.-6      	; 0x152e <btle_driver_tick+0x2e0>
    1534:	aa 96       	adiw	r28, 0x2a	; 42
    1536:	0f b6       	in	r0, 0x3f	; 63
    1538:	f8 94       	cli
    153a:	de bf       	out	0x3e, r29	; 62
    153c:	0f be       	out	0x3f, r0	; 63
    153e:	cd bf       	out	0x3d, r28	; 61
    1540:	df 91       	pop	r29
    1542:	cf 91       	pop	r28
    1544:	1f 91       	pop	r17
    1546:	0f 91       	pop	r16
    1548:	ff 90       	pop	r15
    154a:	ef 90       	pop	r14
    154c:	df 90       	pop	r13
    154e:	cf 90       	pop	r12
    1550:	bf 90       	pop	r11
    1552:	af 90       	pop	r10
    1554:	9f 90       	pop	r9
    1556:	8f 90       	pop	r8
    1558:	7f 90       	pop	r7
    155a:	6f 90       	pop	r6
    155c:	5f 90       	pop	r5
    155e:	08 95       	ret

00001560 <encode_string>:
    1560:	0f 93       	push	r16
    1562:	1f 93       	push	r17
    1564:	cf 93       	push	r28
    1566:	df 93       	push	r29
    1568:	cd b7       	in	r28, 0x3d	; 61
    156a:	de b7       	in	r29, 0x3e	; 62
    156c:	e2 97       	sbiw	r28, 0x32	; 50
    156e:	0f b6       	in	r0, 0x3f	; 63
    1570:	f8 94       	cli
    1572:	de bf       	out	0x3e, r29	; 62
    1574:	0f be       	out	0x3f, r0	; 63
    1576:	cd bf       	out	0x3d, r28	; 61
    1578:	fc 01       	movw	r30, r24
    157a:	8e 01       	movw	r16, r28
    157c:	0f 5f       	subi	r16, 0xFF	; 255
    157e:	1f 4f       	sbci	r17, 0xFF	; 255
    1580:	82 e3       	ldi	r24, 0x32	; 50
    1582:	d8 01       	movw	r26, r16
    1584:	1d 92       	st	X+, r1
    1586:	8a 95       	dec	r24
    1588:	e9 f7       	brne	.-6      	; 0x1584 <encode_string+0x24>
    158a:	80 85       	ldd	r24, Z+8	; 0x08
    158c:	8f 93       	push	r24
    158e:	87 81       	ldd	r24, Z+7	; 0x07
    1590:	8f 93       	push	r24
    1592:	86 81       	ldd	r24, Z+6	; 0x06
    1594:	8f 93       	push	r24
    1596:	85 81       	ldd	r24, Z+5	; 0x05
    1598:	8f 93       	push	r24
    159a:	84 81       	ldd	r24, Z+4	; 0x04
    159c:	8f 93       	push	r24
    159e:	83 81       	ldd	r24, Z+3	; 0x03
    15a0:	8f 93       	push	r24
    15a2:	82 81       	ldd	r24, Z+2	; 0x02
    15a4:	8f 93       	push	r24
    15a6:	81 81       	ldd	r24, Z+1	; 0x01
    15a8:	8f 93       	push	r24
    15aa:	84 85       	ldd	r24, Z+12	; 0x0c
    15ac:	8f 93       	push	r24
    15ae:	83 85       	ldd	r24, Z+11	; 0x0b
    15b0:	8f 93       	push	r24
    15b2:	82 85       	ldd	r24, Z+10	; 0x0a
    15b4:	8f 93       	push	r24
    15b6:	81 85       	ldd	r24, Z+9	; 0x09
    15b8:	8f 93       	push	r24
    15ba:	80 81       	ld	r24, Z
    15bc:	1f 92       	push	r1
    15be:	8f 93       	push	r24
    15c0:	89 ec       	ldi	r24, 0xC9	; 201
    15c2:	90 e0       	ldi	r25, 0x00	; 0
    15c4:	9f 93       	push	r25
    15c6:	8f 93       	push	r24
    15c8:	1f 93       	push	r17
    15ca:	0f 93       	push	r16
    15cc:	0e 94 3b 0d 	call	0x1a76	; 0x1a76 <sprintf_P>
    15d0:	c8 01       	movw	r24, r16
    15d2:	0e 94 9e 04 	call	0x93c	; 0x93c <wan_usart_transmit_string>
    15d6:	0f b6       	in	r0, 0x3f	; 63
    15d8:	f8 94       	cli
    15da:	de bf       	out	0x3e, r29	; 62
    15dc:	0f be       	out	0x3f, r0	; 63
    15de:	cd bf       	out	0x3d, r28	; 61
    15e0:	e2 96       	adiw	r28, 0x32	; 50
    15e2:	0f b6       	in	r0, 0x3f	; 63
    15e4:	f8 94       	cli
    15e6:	de bf       	out	0x3e, r29	; 62
    15e8:	0f be       	out	0x3f, r0	; 63
    15ea:	cd bf       	out	0x3d, r28	; 61
    15ec:	df 91       	pop	r29
    15ee:	cf 91       	pop	r28
    15f0:	1f 91       	pop	r17
    15f2:	0f 91       	pop	r16
    15f4:	08 95       	ret

000015f6 <terminal_in_cb>:
    15f6:	80 93 11 07 	sts	0x0711, r24
    15fa:	08 95       	ret

000015fc <set_timer>:
    15fc:	cf 92       	push	r12
    15fe:	df 92       	push	r13
    1600:	ef 92       	push	r14
    1602:	ff 92       	push	r15
    1604:	6b 01       	movw	r12, r22
    1606:	7c 01       	movw	r14, r24
    1608:	0e 94 c6 01 	call	0x38c	; 0x38c <clock_time>
    160c:	6c 0d       	add	r22, r12
    160e:	7d 1d       	adc	r23, r13
    1610:	8e 1d       	adc	r24, r14
    1612:	9f 1d       	adc	r25, r15
    1614:	60 93 0d 07 	sts	0x070D, r22
    1618:	70 93 0e 07 	sts	0x070E, r23
    161c:	80 93 0f 07 	sts	0x070F, r24
    1620:	90 93 10 07 	sts	0x0710, r25
    1624:	ff 90       	pop	r15
    1626:	ef 90       	pop	r14
    1628:	df 90       	pop	r13
    162a:	cf 90       	pop	r12
    162c:	08 95       	ret

0000162e <timeout>:
    162e:	0f 93       	push	r16
    1630:	1f 93       	push	r17
    1632:	0e 94 c6 01 	call	0x38c	; 0x38c <clock_time>
    1636:	00 91 0d 07 	lds	r16, 0x070D
    163a:	10 91 0e 07 	lds	r17, 0x070E
    163e:	20 91 0f 07 	lds	r18, 0x070F
    1642:	30 91 10 07 	lds	r19, 0x0710
    1646:	60 17       	cp	r22, r16
    1648:	71 07       	cpc	r23, r17
    164a:	82 07       	cpc	r24, r18
    164c:	93 07       	cpc	r25, r19
    164e:	40 f0       	brcs	.+16     	; 0x1660 <timeout+0x32>
    1650:	68 ee       	ldi	r22, 0xE8	; 232
    1652:	73 e0       	ldi	r23, 0x03	; 3
    1654:	80 e0       	ldi	r24, 0x00	; 0
    1656:	90 e0       	ldi	r25, 0x00	; 0
    1658:	0e 94 fe 0a 	call	0x15fc	; 0x15fc <set_timer>
    165c:	81 e0       	ldi	r24, 0x01	; 1
    165e:	01 c0       	rjmp	.+2      	; 0x1662 <timeout+0x34>
    1660:	80 e0       	ldi	r24, 0x00	; 0
    1662:	1f 91       	pop	r17
    1664:	0f 91       	pop	r16
    1666:	08 95       	ret

00001668 <main>:
    1668:	56 9a       	sbi	0x0a, 6	; 10
    166a:	57 9a       	sbi	0x0a, 7	; 10
    166c:	84 b1       	in	r24, 0x04	; 4
    166e:	81 70       	andi	r24, 0x01	; 1
    1670:	84 b9       	out	0x04, r24	; 4
    1672:	8b ef       	ldi	r24, 0xFB	; 251
    1674:	9a e0       	ldi	r25, 0x0A	; 10
    1676:	0e 94 81 03 	call	0x702	; 0x702 <btle_usart_init_cb>
    167a:	0e 94 ba 01 	call	0x374	; 0x374 <clock_init>
    167e:	0e 94 26 02 	call	0x44c	; 0x44c <config_init>
    1682:	0e 94 d4 04 	call	0x9a8	; 0x9a8 <ramdisk_init>
    1686:	0e 94 19 08 	call	0x1032	; 0x1032 <btle_init>
    168a:	0e 94 97 00 	call	0x12e	; 0x12e <wan_init>
    168e:	78 94       	sei
    1690:	2f ef       	ldi	r18, 0xFF	; 255
    1692:	89 e6       	ldi	r24, 0x69	; 105
    1694:	98 e1       	ldi	r25, 0x18	; 24
    1696:	21 50       	subi	r18, 0x01	; 1
    1698:	80 40       	sbci	r24, 0x00	; 0
    169a:	90 40       	sbci	r25, 0x00	; 0
    169c:	e1 f7       	brne	.-8      	; 0x1696 <main+0x2e>
    169e:	00 c0       	rjmp	.+0      	; 0x16a0 <main+0x38>
    16a0:	00 00       	nop
    16a2:	c0 e4       	ldi	r28, 0x40	; 64
    16a4:	0e 94 88 08 	call	0x1110	; 0x1110 <btle_tick>
    16a8:	0e 94 d7 00 	call	0x1ae	; 0x1ae <wan_tick>
    16ac:	80 91 11 07 	lds	r24, 0x0711
    16b0:	10 92 11 07 	sts	0x0711, r1
    16b4:	0e 94 17 0b 	call	0x162e	; 0x162e <timeout>
    16b8:	88 23       	and	r24, r24
    16ba:	a1 f3       	breq	.-24     	; 0x16a4 <main+0x3c>
    16bc:	68 ee       	ldi	r22, 0xE8	; 232
    16be:	73 e0       	ldi	r23, 0x03	; 3
    16c0:	80 e0       	ldi	r24, 0x00	; 0
    16c2:	90 e0       	ldi	r25, 0x00	; 0
    16c4:	0e 94 fe 0a 	call	0x15fc	; 0x15fc <set_timer>
    16c8:	8b b1       	in	r24, 0x0b	; 11
    16ca:	8c 27       	eor	r24, r28
    16cc:	8b b9       	out	0x0b, r24	; 11
    16ce:	ea cf       	rjmp	.-44     	; 0x16a4 <main+0x3c>

000016d0 <__cmpdi2>:
    16d0:	2a 15       	cp	r18, r10
    16d2:	3b 05       	cpc	r19, r11
    16d4:	4c 05       	cpc	r20, r12
    16d6:	5d 05       	cpc	r21, r13
    16d8:	6e 05       	cpc	r22, r14
    16da:	7f 05       	cpc	r23, r15
    16dc:	80 07       	cpc	r24, r16
    16de:	91 07       	cpc	r25, r17
    16e0:	08 95       	ret

000016e2 <__cmpdi2_s8>:
    16e2:	00 24       	eor	r0, r0
    16e4:	a7 fd       	sbrc	r26, 7
    16e6:	00 94       	com	r0
    16e8:	2a 17       	cp	r18, r26
    16ea:	30 05       	cpc	r19, r0
    16ec:	40 05       	cpc	r20, r0
    16ee:	50 05       	cpc	r21, r0
    16f0:	60 05       	cpc	r22, r0
    16f2:	70 05       	cpc	r23, r0
    16f4:	80 05       	cpc	r24, r0
    16f6:	90 05       	cpc	r25, r0
    16f8:	08 95       	ret

000016fa <malloc>:
    16fa:	cf 93       	push	r28
    16fc:	df 93       	push	r29
    16fe:	82 30       	cpi	r24, 0x02	; 2
    1700:	91 05       	cpc	r25, r1
    1702:	10 f4       	brcc	.+4      	; 0x1708 <malloc+0xe>
    1704:	82 e0       	ldi	r24, 0x02	; 2
    1706:	90 e0       	ldi	r25, 0x00	; 0
    1708:	e0 91 5a 09 	lds	r30, 0x095A
    170c:	f0 91 5b 09 	lds	r31, 0x095B
    1710:	20 e0       	ldi	r18, 0x00	; 0
    1712:	30 e0       	ldi	r19, 0x00	; 0
    1714:	a0 e0       	ldi	r26, 0x00	; 0
    1716:	b0 e0       	ldi	r27, 0x00	; 0
    1718:	30 97       	sbiw	r30, 0x00	; 0
    171a:	39 f1       	breq	.+78     	; 0x176a <malloc+0x70>
    171c:	40 81       	ld	r20, Z
    171e:	51 81       	ldd	r21, Z+1	; 0x01
    1720:	48 17       	cp	r20, r24
    1722:	59 07       	cpc	r21, r25
    1724:	b8 f0       	brcs	.+46     	; 0x1754 <malloc+0x5a>
    1726:	48 17       	cp	r20, r24
    1728:	59 07       	cpc	r21, r25
    172a:	71 f4       	brne	.+28     	; 0x1748 <malloc+0x4e>
    172c:	82 81       	ldd	r24, Z+2	; 0x02
    172e:	93 81       	ldd	r25, Z+3	; 0x03
    1730:	10 97       	sbiw	r26, 0x00	; 0
    1732:	29 f0       	breq	.+10     	; 0x173e <malloc+0x44>
    1734:	13 96       	adiw	r26, 0x03	; 3
    1736:	9c 93       	st	X, r25
    1738:	8e 93       	st	-X, r24
    173a:	12 97       	sbiw	r26, 0x02	; 2
    173c:	2c c0       	rjmp	.+88     	; 0x1796 <malloc+0x9c>
    173e:	90 93 5b 09 	sts	0x095B, r25
    1742:	80 93 5a 09 	sts	0x095A, r24
    1746:	27 c0       	rjmp	.+78     	; 0x1796 <malloc+0x9c>
    1748:	21 15       	cp	r18, r1
    174a:	31 05       	cpc	r19, r1
    174c:	31 f0       	breq	.+12     	; 0x175a <malloc+0x60>
    174e:	42 17       	cp	r20, r18
    1750:	53 07       	cpc	r21, r19
    1752:	18 f0       	brcs	.+6      	; 0x175a <malloc+0x60>
    1754:	a9 01       	movw	r20, r18
    1756:	db 01       	movw	r26, r22
    1758:	01 c0       	rjmp	.+2      	; 0x175c <malloc+0x62>
    175a:	ef 01       	movw	r28, r30
    175c:	9a 01       	movw	r18, r20
    175e:	bd 01       	movw	r22, r26
    1760:	df 01       	movw	r26, r30
    1762:	02 80       	ldd	r0, Z+2	; 0x02
    1764:	f3 81       	ldd	r31, Z+3	; 0x03
    1766:	e0 2d       	mov	r30, r0
    1768:	d7 cf       	rjmp	.-82     	; 0x1718 <malloc+0x1e>
    176a:	21 15       	cp	r18, r1
    176c:	31 05       	cpc	r19, r1
    176e:	f9 f0       	breq	.+62     	; 0x17ae <malloc+0xb4>
    1770:	28 1b       	sub	r18, r24
    1772:	39 0b       	sbc	r19, r25
    1774:	24 30       	cpi	r18, 0x04	; 4
    1776:	31 05       	cpc	r19, r1
    1778:	80 f4       	brcc	.+32     	; 0x179a <malloc+0xa0>
    177a:	8a 81       	ldd	r24, Y+2	; 0x02
    177c:	9b 81       	ldd	r25, Y+3	; 0x03
    177e:	61 15       	cp	r22, r1
    1780:	71 05       	cpc	r23, r1
    1782:	21 f0       	breq	.+8      	; 0x178c <malloc+0x92>
    1784:	fb 01       	movw	r30, r22
    1786:	93 83       	std	Z+3, r25	; 0x03
    1788:	82 83       	std	Z+2, r24	; 0x02
    178a:	04 c0       	rjmp	.+8      	; 0x1794 <malloc+0x9a>
    178c:	90 93 5b 09 	sts	0x095B, r25
    1790:	80 93 5a 09 	sts	0x095A, r24
    1794:	fe 01       	movw	r30, r28
    1796:	32 96       	adiw	r30, 0x02	; 2
    1798:	44 c0       	rjmp	.+136    	; 0x1822 <malloc+0x128>
    179a:	fe 01       	movw	r30, r28
    179c:	e2 0f       	add	r30, r18
    179e:	f3 1f       	adc	r31, r19
    17a0:	81 93       	st	Z+, r24
    17a2:	91 93       	st	Z+, r25
    17a4:	22 50       	subi	r18, 0x02	; 2
    17a6:	31 09       	sbc	r19, r1
    17a8:	39 83       	std	Y+1, r19	; 0x01
    17aa:	28 83       	st	Y, r18
    17ac:	3a c0       	rjmp	.+116    	; 0x1822 <malloc+0x128>
    17ae:	20 91 58 09 	lds	r18, 0x0958
    17b2:	30 91 59 09 	lds	r19, 0x0959
    17b6:	23 2b       	or	r18, r19
    17b8:	41 f4       	brne	.+16     	; 0x17ca <malloc+0xd0>
    17ba:	20 91 02 01 	lds	r18, 0x0102
    17be:	30 91 03 01 	lds	r19, 0x0103
    17c2:	30 93 59 09 	sts	0x0959, r19
    17c6:	20 93 58 09 	sts	0x0958, r18
    17ca:	20 91 00 01 	lds	r18, 0x0100
    17ce:	30 91 01 01 	lds	r19, 0x0101
    17d2:	21 15       	cp	r18, r1
    17d4:	31 05       	cpc	r19, r1
    17d6:	41 f4       	brne	.+16     	; 0x17e8 <malloc+0xee>
    17d8:	2d b7       	in	r18, 0x3d	; 61
    17da:	3e b7       	in	r19, 0x3e	; 62
    17dc:	40 91 04 01 	lds	r20, 0x0104
    17e0:	50 91 05 01 	lds	r21, 0x0105
    17e4:	24 1b       	sub	r18, r20
    17e6:	35 0b       	sbc	r19, r21
    17e8:	e0 91 58 09 	lds	r30, 0x0958
    17ec:	f0 91 59 09 	lds	r31, 0x0959
    17f0:	e2 17       	cp	r30, r18
    17f2:	f3 07       	cpc	r31, r19
    17f4:	a0 f4       	brcc	.+40     	; 0x181e <malloc+0x124>
    17f6:	2e 1b       	sub	r18, r30
    17f8:	3f 0b       	sbc	r19, r31
    17fa:	28 17       	cp	r18, r24
    17fc:	39 07       	cpc	r19, r25
    17fe:	78 f0       	brcs	.+30     	; 0x181e <malloc+0x124>
    1800:	ac 01       	movw	r20, r24
    1802:	4e 5f       	subi	r20, 0xFE	; 254
    1804:	5f 4f       	sbci	r21, 0xFF	; 255
    1806:	24 17       	cp	r18, r20
    1808:	35 07       	cpc	r19, r21
    180a:	48 f0       	brcs	.+18     	; 0x181e <malloc+0x124>
    180c:	4e 0f       	add	r20, r30
    180e:	5f 1f       	adc	r21, r31
    1810:	50 93 59 09 	sts	0x0959, r21
    1814:	40 93 58 09 	sts	0x0958, r20
    1818:	81 93       	st	Z+, r24
    181a:	91 93       	st	Z+, r25
    181c:	02 c0       	rjmp	.+4      	; 0x1822 <malloc+0x128>
    181e:	e0 e0       	ldi	r30, 0x00	; 0
    1820:	f0 e0       	ldi	r31, 0x00	; 0
    1822:	cf 01       	movw	r24, r30
    1824:	df 91       	pop	r29
    1826:	cf 91       	pop	r28
    1828:	08 95       	ret

0000182a <free>:
    182a:	cf 93       	push	r28
    182c:	df 93       	push	r29
    182e:	00 97       	sbiw	r24, 0x00	; 0
    1830:	09 f4       	brne	.+2      	; 0x1834 <free+0xa>
    1832:	87 c0       	rjmp	.+270    	; 0x1942 <free+0x118>
    1834:	fc 01       	movw	r30, r24
    1836:	32 97       	sbiw	r30, 0x02	; 2
    1838:	13 82       	std	Z+3, r1	; 0x03
    183a:	12 82       	std	Z+2, r1	; 0x02
    183c:	c0 91 5a 09 	lds	r28, 0x095A
    1840:	d0 91 5b 09 	lds	r29, 0x095B
    1844:	20 97       	sbiw	r28, 0x00	; 0
    1846:	81 f4       	brne	.+32     	; 0x1868 <free+0x3e>
    1848:	20 81       	ld	r18, Z
    184a:	31 81       	ldd	r19, Z+1	; 0x01
    184c:	28 0f       	add	r18, r24
    184e:	39 1f       	adc	r19, r25
    1850:	80 91 58 09 	lds	r24, 0x0958
    1854:	90 91 59 09 	lds	r25, 0x0959
    1858:	82 17       	cp	r24, r18
    185a:	93 07       	cpc	r25, r19
    185c:	79 f5       	brne	.+94     	; 0x18bc <free+0x92>
    185e:	f0 93 59 09 	sts	0x0959, r31
    1862:	e0 93 58 09 	sts	0x0958, r30
    1866:	6d c0       	rjmp	.+218    	; 0x1942 <free+0x118>
    1868:	de 01       	movw	r26, r28
    186a:	20 e0       	ldi	r18, 0x00	; 0
    186c:	30 e0       	ldi	r19, 0x00	; 0
    186e:	ae 17       	cp	r26, r30
    1870:	bf 07       	cpc	r27, r31
    1872:	50 f4       	brcc	.+20     	; 0x1888 <free+0x5e>
    1874:	12 96       	adiw	r26, 0x02	; 2
    1876:	4d 91       	ld	r20, X+
    1878:	5c 91       	ld	r21, X
    187a:	13 97       	sbiw	r26, 0x03	; 3
    187c:	9d 01       	movw	r18, r26
    187e:	41 15       	cp	r20, r1
    1880:	51 05       	cpc	r21, r1
    1882:	09 f1       	breq	.+66     	; 0x18c6 <free+0x9c>
    1884:	da 01       	movw	r26, r20
    1886:	f3 cf       	rjmp	.-26     	; 0x186e <free+0x44>
    1888:	b3 83       	std	Z+3, r27	; 0x03
    188a:	a2 83       	std	Z+2, r26	; 0x02
    188c:	40 81       	ld	r20, Z
    188e:	51 81       	ldd	r21, Z+1	; 0x01
    1890:	84 0f       	add	r24, r20
    1892:	95 1f       	adc	r25, r21
    1894:	8a 17       	cp	r24, r26
    1896:	9b 07       	cpc	r25, r27
    1898:	71 f4       	brne	.+28     	; 0x18b6 <free+0x8c>
    189a:	8d 91       	ld	r24, X+
    189c:	9c 91       	ld	r25, X
    189e:	11 97       	sbiw	r26, 0x01	; 1
    18a0:	84 0f       	add	r24, r20
    18a2:	95 1f       	adc	r25, r21
    18a4:	02 96       	adiw	r24, 0x02	; 2
    18a6:	91 83       	std	Z+1, r25	; 0x01
    18a8:	80 83       	st	Z, r24
    18aa:	12 96       	adiw	r26, 0x02	; 2
    18ac:	8d 91       	ld	r24, X+
    18ae:	9c 91       	ld	r25, X
    18b0:	13 97       	sbiw	r26, 0x03	; 3
    18b2:	93 83       	std	Z+3, r25	; 0x03
    18b4:	82 83       	std	Z+2, r24	; 0x02
    18b6:	21 15       	cp	r18, r1
    18b8:	31 05       	cpc	r19, r1
    18ba:	29 f4       	brne	.+10     	; 0x18c6 <free+0x9c>
    18bc:	f0 93 5b 09 	sts	0x095B, r31
    18c0:	e0 93 5a 09 	sts	0x095A, r30
    18c4:	3e c0       	rjmp	.+124    	; 0x1942 <free+0x118>
    18c6:	d9 01       	movw	r26, r18
    18c8:	13 96       	adiw	r26, 0x03	; 3
    18ca:	fc 93       	st	X, r31
    18cc:	ee 93       	st	-X, r30
    18ce:	12 97       	sbiw	r26, 0x02	; 2
    18d0:	4d 91       	ld	r20, X+
    18d2:	5d 91       	ld	r21, X+
    18d4:	a4 0f       	add	r26, r20
    18d6:	b5 1f       	adc	r27, r21
    18d8:	ea 17       	cp	r30, r26
    18da:	fb 07       	cpc	r31, r27
    18dc:	79 f4       	brne	.+30     	; 0x18fc <free+0xd2>
    18de:	80 81       	ld	r24, Z
    18e0:	91 81       	ldd	r25, Z+1	; 0x01
    18e2:	84 0f       	add	r24, r20
    18e4:	95 1f       	adc	r25, r21
    18e6:	02 96       	adiw	r24, 0x02	; 2
    18e8:	d9 01       	movw	r26, r18
    18ea:	11 96       	adiw	r26, 0x01	; 1
    18ec:	9c 93       	st	X, r25
    18ee:	8e 93       	st	-X, r24
    18f0:	82 81       	ldd	r24, Z+2	; 0x02
    18f2:	93 81       	ldd	r25, Z+3	; 0x03
    18f4:	13 96       	adiw	r26, 0x03	; 3
    18f6:	9c 93       	st	X, r25
    18f8:	8e 93       	st	-X, r24
    18fa:	12 97       	sbiw	r26, 0x02	; 2
    18fc:	e0 e0       	ldi	r30, 0x00	; 0
    18fe:	f0 e0       	ldi	r31, 0x00	; 0
    1900:	8a 81       	ldd	r24, Y+2	; 0x02
    1902:	9b 81       	ldd	r25, Y+3	; 0x03
    1904:	00 97       	sbiw	r24, 0x00	; 0
    1906:	19 f0       	breq	.+6      	; 0x190e <free+0xe4>
    1908:	fe 01       	movw	r30, r28
    190a:	ec 01       	movw	r28, r24
    190c:	f9 cf       	rjmp	.-14     	; 0x1900 <free+0xd6>
    190e:	ce 01       	movw	r24, r28
    1910:	02 96       	adiw	r24, 0x02	; 2
    1912:	28 81       	ld	r18, Y
    1914:	39 81       	ldd	r19, Y+1	; 0x01
    1916:	82 0f       	add	r24, r18
    1918:	93 1f       	adc	r25, r19
    191a:	20 91 58 09 	lds	r18, 0x0958
    191e:	30 91 59 09 	lds	r19, 0x0959
    1922:	28 17       	cp	r18, r24
    1924:	39 07       	cpc	r19, r25
    1926:	69 f4       	brne	.+26     	; 0x1942 <free+0x118>
    1928:	30 97       	sbiw	r30, 0x00	; 0
    192a:	29 f4       	brne	.+10     	; 0x1936 <free+0x10c>
    192c:	10 92 5b 09 	sts	0x095B, r1
    1930:	10 92 5a 09 	sts	0x095A, r1
    1934:	02 c0       	rjmp	.+4      	; 0x193a <free+0x110>
    1936:	13 82       	std	Z+3, r1	; 0x03
    1938:	12 82       	std	Z+2, r1	; 0x02
    193a:	d0 93 59 09 	sts	0x0959, r29
    193e:	c0 93 58 09 	sts	0x0958, r28
    1942:	df 91       	pop	r29
    1944:	cf 91       	pop	r28
    1946:	08 95       	ret

00001948 <memcmp>:
    1948:	fb 01       	movw	r30, r22
    194a:	dc 01       	movw	r26, r24
    194c:	04 c0       	rjmp	.+8      	; 0x1956 <memcmp+0xe>
    194e:	8d 91       	ld	r24, X+
    1950:	01 90       	ld	r0, Z+
    1952:	80 19       	sub	r24, r0
    1954:	21 f4       	brne	.+8      	; 0x195e <memcmp+0x16>
    1956:	41 50       	subi	r20, 0x01	; 1
    1958:	50 40       	sbci	r21, 0x00	; 0
    195a:	c8 f7       	brcc	.-14     	; 0x194e <memcmp+0x6>
    195c:	88 1b       	sub	r24, r24
    195e:	99 0b       	sbc	r25, r25
    1960:	08 95       	ret

00001962 <memcpy>:
    1962:	fb 01       	movw	r30, r22
    1964:	dc 01       	movw	r26, r24
    1966:	02 c0       	rjmp	.+4      	; 0x196c <memcpy+0xa>
    1968:	01 90       	ld	r0, Z+
    196a:	0d 92       	st	X+, r0
    196c:	41 50       	subi	r20, 0x01	; 1
    196e:	50 40       	sbci	r21, 0x00	; 0
    1970:	d8 f7       	brcc	.-10     	; 0x1968 <memcpy+0x6>
    1972:	08 95       	ret

00001974 <strchr>:
    1974:	fc 01       	movw	r30, r24
    1976:	81 91       	ld	r24, Z+
    1978:	86 17       	cp	r24, r22
    197a:	21 f0       	breq	.+8      	; 0x1984 <strchr+0x10>
    197c:	88 23       	and	r24, r24
    197e:	d9 f7       	brne	.-10     	; 0x1976 <strchr+0x2>
    1980:	99 27       	eor	r25, r25
    1982:	08 95       	ret
    1984:	31 97       	sbiw	r30, 0x01	; 1
    1986:	cf 01       	movw	r24, r30
    1988:	08 95       	ret

0000198a <strcpy>:
    198a:	fb 01       	movw	r30, r22
    198c:	dc 01       	movw	r26, r24
    198e:	01 90       	ld	r0, Z+
    1990:	0d 92       	st	X+, r0
    1992:	00 20       	and	r0, r0
    1994:	e1 f7       	brne	.-8      	; 0x198e <strcpy+0x4>
    1996:	08 95       	ret

00001998 <fdevopen>:
    1998:	0f 93       	push	r16
    199a:	1f 93       	push	r17
    199c:	cf 93       	push	r28
    199e:	df 93       	push	r29
    19a0:	ec 01       	movw	r28, r24
    19a2:	8b 01       	movw	r16, r22
    19a4:	00 97       	sbiw	r24, 0x00	; 0
    19a6:	31 f4       	brne	.+12     	; 0x19b4 <fdevopen+0x1c>
    19a8:	61 15       	cp	r22, r1
    19aa:	71 05       	cpc	r23, r1
    19ac:	19 f4       	brne	.+6      	; 0x19b4 <fdevopen+0x1c>
    19ae:	80 e0       	ldi	r24, 0x00	; 0
    19b0:	90 e0       	ldi	r25, 0x00	; 0
    19b2:	38 c0       	rjmp	.+112    	; 0x1a24 <fdevopen+0x8c>
    19b4:	6e e0       	ldi	r22, 0x0E	; 14
    19b6:	70 e0       	ldi	r23, 0x00	; 0
    19b8:	81 e0       	ldi	r24, 0x01	; 1
    19ba:	90 e0       	ldi	r25, 0x00	; 0
    19bc:	0e 94 8a 0f 	call	0x1f14	; 0x1f14 <calloc>
    19c0:	fc 01       	movw	r30, r24
    19c2:	00 97       	sbiw	r24, 0x00	; 0
    19c4:	a1 f3       	breq	.-24     	; 0x19ae <fdevopen+0x16>
    19c6:	80 e8       	ldi	r24, 0x80	; 128
    19c8:	83 83       	std	Z+3, r24	; 0x03
    19ca:	01 15       	cp	r16, r1
    19cc:	11 05       	cpc	r17, r1
    19ce:	71 f0       	breq	.+28     	; 0x19ec <fdevopen+0x54>
    19d0:	13 87       	std	Z+11, r17	; 0x0b
    19d2:	02 87       	std	Z+10, r16	; 0x0a
    19d4:	81 e8       	ldi	r24, 0x81	; 129
    19d6:	83 83       	std	Z+3, r24	; 0x03
    19d8:	80 91 5c 09 	lds	r24, 0x095C
    19dc:	90 91 5d 09 	lds	r25, 0x095D
    19e0:	89 2b       	or	r24, r25
    19e2:	21 f4       	brne	.+8      	; 0x19ec <fdevopen+0x54>
    19e4:	f0 93 5d 09 	sts	0x095D, r31
    19e8:	e0 93 5c 09 	sts	0x095C, r30
    19ec:	20 97       	sbiw	r28, 0x00	; 0
    19ee:	c9 f0       	breq	.+50     	; 0x1a22 <fdevopen+0x8a>
    19f0:	d1 87       	std	Z+9, r29	; 0x09
    19f2:	c0 87       	std	Z+8, r28	; 0x08
    19f4:	83 81       	ldd	r24, Z+3	; 0x03
    19f6:	82 60       	ori	r24, 0x02	; 2
    19f8:	83 83       	std	Z+3, r24	; 0x03
    19fa:	80 91 5e 09 	lds	r24, 0x095E
    19fe:	90 91 5f 09 	lds	r25, 0x095F
    1a02:	89 2b       	or	r24, r25
    1a04:	71 f4       	brne	.+28     	; 0x1a22 <fdevopen+0x8a>
    1a06:	f0 93 5f 09 	sts	0x095F, r31
    1a0a:	e0 93 5e 09 	sts	0x095E, r30
    1a0e:	80 91 60 09 	lds	r24, 0x0960
    1a12:	90 91 61 09 	lds	r25, 0x0961
    1a16:	89 2b       	or	r24, r25
    1a18:	21 f4       	brne	.+8      	; 0x1a22 <fdevopen+0x8a>
    1a1a:	f0 93 61 09 	sts	0x0961, r31
    1a1e:	e0 93 60 09 	sts	0x0960, r30
    1a22:	cf 01       	movw	r24, r30
    1a24:	df 91       	pop	r29
    1a26:	cf 91       	pop	r28
    1a28:	1f 91       	pop	r17
    1a2a:	0f 91       	pop	r16
    1a2c:	08 95       	ret

00001a2e <printf_P>:
    1a2e:	0f 93       	push	r16
    1a30:	1f 93       	push	r17
    1a32:	cf 93       	push	r28
    1a34:	df 93       	push	r29
    1a36:	cd b7       	in	r28, 0x3d	; 61
    1a38:	de b7       	in	r29, 0x3e	; 62
    1a3a:	fe 01       	movw	r30, r28
    1a3c:	37 96       	adiw	r30, 0x07	; 7
    1a3e:	61 91       	ld	r22, Z+
    1a40:	71 91       	ld	r23, Z+
    1a42:	0e e5       	ldi	r16, 0x5E	; 94
    1a44:	19 e0       	ldi	r17, 0x09	; 9
    1a46:	d8 01       	movw	r26, r16
    1a48:	8d 91       	ld	r24, X+
    1a4a:	9c 91       	ld	r25, X
    1a4c:	dc 01       	movw	r26, r24
    1a4e:	13 96       	adiw	r26, 0x03	; 3
    1a50:	2c 91       	ld	r18, X
    1a52:	13 97       	sbiw	r26, 0x03	; 3
    1a54:	28 60       	ori	r18, 0x08	; 8
    1a56:	13 96       	adiw	r26, 0x03	; 3
    1a58:	2c 93       	st	X, r18
    1a5a:	af 01       	movw	r20, r30
    1a5c:	0e 94 79 0d 	call	0x1af2	; 0x1af2 <vfprintf>
    1a60:	d8 01       	movw	r26, r16
    1a62:	ed 91       	ld	r30, X+
    1a64:	fc 91       	ld	r31, X
    1a66:	23 81       	ldd	r18, Z+3	; 0x03
    1a68:	27 7f       	andi	r18, 0xF7	; 247
    1a6a:	23 83       	std	Z+3, r18	; 0x03
    1a6c:	df 91       	pop	r29
    1a6e:	cf 91       	pop	r28
    1a70:	1f 91       	pop	r17
    1a72:	0f 91       	pop	r16
    1a74:	08 95       	ret

00001a76 <sprintf_P>:
    1a76:	0f 93       	push	r16
    1a78:	1f 93       	push	r17
    1a7a:	cf 93       	push	r28
    1a7c:	df 93       	push	r29
    1a7e:	cd b7       	in	r28, 0x3d	; 61
    1a80:	de b7       	in	r29, 0x3e	; 62
    1a82:	2e 97       	sbiw	r28, 0x0e	; 14
    1a84:	0f b6       	in	r0, 0x3f	; 63
    1a86:	f8 94       	cli
    1a88:	de bf       	out	0x3e, r29	; 62
    1a8a:	0f be       	out	0x3f, r0	; 63
    1a8c:	cd bf       	out	0x3d, r28	; 61
    1a8e:	0d 89       	ldd	r16, Y+21	; 0x15
    1a90:	1e 89       	ldd	r17, Y+22	; 0x16
    1a92:	8e e0       	ldi	r24, 0x0E	; 14
    1a94:	8c 83       	std	Y+4, r24	; 0x04
    1a96:	1a 83       	std	Y+2, r17	; 0x02
    1a98:	09 83       	std	Y+1, r16	; 0x01
    1a9a:	8f ef       	ldi	r24, 0xFF	; 255
    1a9c:	9f e7       	ldi	r25, 0x7F	; 127
    1a9e:	9e 83       	std	Y+6, r25	; 0x06
    1aa0:	8d 83       	std	Y+5, r24	; 0x05
    1aa2:	ae 01       	movw	r20, r28
    1aa4:	47 5e       	subi	r20, 0xE7	; 231
    1aa6:	5f 4f       	sbci	r21, 0xFF	; 255
    1aa8:	6f 89       	ldd	r22, Y+23	; 0x17
    1aaa:	78 8d       	ldd	r23, Y+24	; 0x18
    1aac:	ce 01       	movw	r24, r28
    1aae:	01 96       	adiw	r24, 0x01	; 1
    1ab0:	0e 94 79 0d 	call	0x1af2	; 0x1af2 <vfprintf>
    1ab4:	ef 81       	ldd	r30, Y+7	; 0x07
    1ab6:	f8 85       	ldd	r31, Y+8	; 0x08
    1ab8:	e0 0f       	add	r30, r16
    1aba:	f1 1f       	adc	r31, r17
    1abc:	10 82       	st	Z, r1
    1abe:	2e 96       	adiw	r28, 0x0e	; 14
    1ac0:	0f b6       	in	r0, 0x3f	; 63
    1ac2:	f8 94       	cli
    1ac4:	de bf       	out	0x3e, r29	; 62
    1ac6:	0f be       	out	0x3f, r0	; 63
    1ac8:	cd bf       	out	0x3d, r28	; 61
    1aca:	df 91       	pop	r29
    1acc:	cf 91       	pop	r28
    1ace:	1f 91       	pop	r17
    1ad0:	0f 91       	pop	r16
    1ad2:	08 95       	ret

00001ad4 <vfprintf_P>:
    1ad4:	cf 93       	push	r28
    1ad6:	df 93       	push	r29
    1ad8:	ec 01       	movw	r28, r24
    1ada:	8b 81       	ldd	r24, Y+3	; 0x03
    1adc:	88 60       	ori	r24, 0x08	; 8
    1ade:	8b 83       	std	Y+3, r24	; 0x03
    1ae0:	ce 01       	movw	r24, r28
    1ae2:	0e 94 79 0d 	call	0x1af2	; 0x1af2 <vfprintf>
    1ae6:	2b 81       	ldd	r18, Y+3	; 0x03
    1ae8:	27 7f       	andi	r18, 0xF7	; 247
    1aea:	2b 83       	std	Y+3, r18	; 0x03
    1aec:	df 91       	pop	r29
    1aee:	cf 91       	pop	r28
    1af0:	08 95       	ret

00001af2 <vfprintf>:
    1af2:	2f 92       	push	r2
    1af4:	3f 92       	push	r3
    1af6:	4f 92       	push	r4
    1af8:	5f 92       	push	r5
    1afa:	6f 92       	push	r6
    1afc:	7f 92       	push	r7
    1afe:	8f 92       	push	r8
    1b00:	9f 92       	push	r9
    1b02:	af 92       	push	r10
    1b04:	bf 92       	push	r11
    1b06:	cf 92       	push	r12
    1b08:	df 92       	push	r13
    1b0a:	ef 92       	push	r14
    1b0c:	ff 92       	push	r15
    1b0e:	0f 93       	push	r16
    1b10:	1f 93       	push	r17
    1b12:	cf 93       	push	r28
    1b14:	df 93       	push	r29
    1b16:	cd b7       	in	r28, 0x3d	; 61
    1b18:	de b7       	in	r29, 0x3e	; 62
    1b1a:	2c 97       	sbiw	r28, 0x0c	; 12
    1b1c:	0f b6       	in	r0, 0x3f	; 63
    1b1e:	f8 94       	cli
    1b20:	de bf       	out	0x3e, r29	; 62
    1b22:	0f be       	out	0x3f, r0	; 63
    1b24:	cd bf       	out	0x3d, r28	; 61
    1b26:	7c 01       	movw	r14, r24
    1b28:	6b 01       	movw	r12, r22
    1b2a:	8a 01       	movw	r16, r20
    1b2c:	fc 01       	movw	r30, r24
    1b2e:	17 82       	std	Z+7, r1	; 0x07
    1b30:	16 82       	std	Z+6, r1	; 0x06
    1b32:	83 81       	ldd	r24, Z+3	; 0x03
    1b34:	81 ff       	sbrs	r24, 1
    1b36:	bd c1       	rjmp	.+890    	; 0x1eb2 <vfprintf+0x3c0>
    1b38:	ce 01       	movw	r24, r28
    1b3a:	01 96       	adiw	r24, 0x01	; 1
    1b3c:	4c 01       	movw	r8, r24
    1b3e:	f7 01       	movw	r30, r14
    1b40:	93 81       	ldd	r25, Z+3	; 0x03
    1b42:	f6 01       	movw	r30, r12
    1b44:	93 fd       	sbrc	r25, 3
    1b46:	85 91       	lpm	r24, Z+
    1b48:	93 ff       	sbrs	r25, 3
    1b4a:	81 91       	ld	r24, Z+
    1b4c:	6f 01       	movw	r12, r30
    1b4e:	88 23       	and	r24, r24
    1b50:	09 f4       	brne	.+2      	; 0x1b54 <vfprintf+0x62>
    1b52:	ab c1       	rjmp	.+854    	; 0x1eaa <vfprintf+0x3b8>
    1b54:	85 32       	cpi	r24, 0x25	; 37
    1b56:	39 f4       	brne	.+14     	; 0x1b66 <vfprintf+0x74>
    1b58:	93 fd       	sbrc	r25, 3
    1b5a:	85 91       	lpm	r24, Z+
    1b5c:	93 ff       	sbrs	r25, 3
    1b5e:	81 91       	ld	r24, Z+
    1b60:	6f 01       	movw	r12, r30
    1b62:	85 32       	cpi	r24, 0x25	; 37
    1b64:	29 f4       	brne	.+10     	; 0x1b70 <vfprintf+0x7e>
    1b66:	b7 01       	movw	r22, r14
    1b68:	90 e0       	ldi	r25, 0x00	; 0
    1b6a:	0e 94 c3 0f 	call	0x1f86	; 0x1f86 <fputc>
    1b6e:	e7 cf       	rjmp	.-50     	; 0x1b3e <vfprintf+0x4c>
    1b70:	51 2c       	mov	r5, r1
    1b72:	31 2c       	mov	r3, r1
    1b74:	20 e0       	ldi	r18, 0x00	; 0
    1b76:	20 32       	cpi	r18, 0x20	; 32
    1b78:	a0 f4       	brcc	.+40     	; 0x1ba2 <vfprintf+0xb0>
    1b7a:	8b 32       	cpi	r24, 0x2B	; 43
    1b7c:	69 f0       	breq	.+26     	; 0x1b98 <vfprintf+0xa6>
    1b7e:	30 f4       	brcc	.+12     	; 0x1b8c <vfprintf+0x9a>
    1b80:	80 32       	cpi	r24, 0x20	; 32
    1b82:	59 f0       	breq	.+22     	; 0x1b9a <vfprintf+0xa8>
    1b84:	83 32       	cpi	r24, 0x23	; 35
    1b86:	69 f4       	brne	.+26     	; 0x1ba2 <vfprintf+0xb0>
    1b88:	20 61       	ori	r18, 0x10	; 16
    1b8a:	2c c0       	rjmp	.+88     	; 0x1be4 <vfprintf+0xf2>
    1b8c:	8d 32       	cpi	r24, 0x2D	; 45
    1b8e:	39 f0       	breq	.+14     	; 0x1b9e <vfprintf+0xac>
    1b90:	80 33       	cpi	r24, 0x30	; 48
    1b92:	39 f4       	brne	.+14     	; 0x1ba2 <vfprintf+0xb0>
    1b94:	21 60       	ori	r18, 0x01	; 1
    1b96:	26 c0       	rjmp	.+76     	; 0x1be4 <vfprintf+0xf2>
    1b98:	22 60       	ori	r18, 0x02	; 2
    1b9a:	24 60       	ori	r18, 0x04	; 4
    1b9c:	23 c0       	rjmp	.+70     	; 0x1be4 <vfprintf+0xf2>
    1b9e:	28 60       	ori	r18, 0x08	; 8
    1ba0:	21 c0       	rjmp	.+66     	; 0x1be4 <vfprintf+0xf2>
    1ba2:	27 fd       	sbrc	r18, 7
    1ba4:	27 c0       	rjmp	.+78     	; 0x1bf4 <vfprintf+0x102>
    1ba6:	30 ed       	ldi	r19, 0xD0	; 208
    1ba8:	38 0f       	add	r19, r24
    1baa:	3a 30       	cpi	r19, 0x0A	; 10
    1bac:	78 f4       	brcc	.+30     	; 0x1bcc <vfprintf+0xda>
    1bae:	26 ff       	sbrs	r18, 6
    1bb0:	06 c0       	rjmp	.+12     	; 0x1bbe <vfprintf+0xcc>
    1bb2:	fa e0       	ldi	r31, 0x0A	; 10
    1bb4:	5f 9e       	mul	r5, r31
    1bb6:	30 0d       	add	r19, r0
    1bb8:	11 24       	eor	r1, r1
    1bba:	53 2e       	mov	r5, r19
    1bbc:	13 c0       	rjmp	.+38     	; 0x1be4 <vfprintf+0xf2>
    1bbe:	8a e0       	ldi	r24, 0x0A	; 10
    1bc0:	38 9e       	mul	r3, r24
    1bc2:	30 0d       	add	r19, r0
    1bc4:	11 24       	eor	r1, r1
    1bc6:	33 2e       	mov	r3, r19
    1bc8:	20 62       	ori	r18, 0x20	; 32
    1bca:	0c c0       	rjmp	.+24     	; 0x1be4 <vfprintf+0xf2>
    1bcc:	8e 32       	cpi	r24, 0x2E	; 46
    1bce:	21 f4       	brne	.+8      	; 0x1bd8 <vfprintf+0xe6>
    1bd0:	26 fd       	sbrc	r18, 6
    1bd2:	6b c1       	rjmp	.+726    	; 0x1eaa <vfprintf+0x3b8>
    1bd4:	20 64       	ori	r18, 0x40	; 64
    1bd6:	06 c0       	rjmp	.+12     	; 0x1be4 <vfprintf+0xf2>
    1bd8:	8c 36       	cpi	r24, 0x6C	; 108
    1bda:	11 f4       	brne	.+4      	; 0x1be0 <vfprintf+0xee>
    1bdc:	20 68       	ori	r18, 0x80	; 128
    1bde:	02 c0       	rjmp	.+4      	; 0x1be4 <vfprintf+0xf2>
    1be0:	88 36       	cpi	r24, 0x68	; 104
    1be2:	41 f4       	brne	.+16     	; 0x1bf4 <vfprintf+0x102>
    1be4:	f6 01       	movw	r30, r12
    1be6:	93 fd       	sbrc	r25, 3
    1be8:	85 91       	lpm	r24, Z+
    1bea:	93 ff       	sbrs	r25, 3
    1bec:	81 91       	ld	r24, Z+
    1bee:	6f 01       	movw	r12, r30
    1bf0:	81 11       	cpse	r24, r1
    1bf2:	c1 cf       	rjmp	.-126    	; 0x1b76 <vfprintf+0x84>
    1bf4:	98 2f       	mov	r25, r24
    1bf6:	9f 7d       	andi	r25, 0xDF	; 223
    1bf8:	95 54       	subi	r25, 0x45	; 69
    1bfa:	93 30       	cpi	r25, 0x03	; 3
    1bfc:	28 f4       	brcc	.+10     	; 0x1c08 <vfprintf+0x116>
    1bfe:	0c 5f       	subi	r16, 0xFC	; 252
    1c00:	1f 4f       	sbci	r17, 0xFF	; 255
    1c02:	ff e3       	ldi	r31, 0x3F	; 63
    1c04:	f9 83       	std	Y+1, r31	; 0x01
    1c06:	0d c0       	rjmp	.+26     	; 0x1c22 <vfprintf+0x130>
    1c08:	83 36       	cpi	r24, 0x63	; 99
    1c0a:	31 f0       	breq	.+12     	; 0x1c18 <vfprintf+0x126>
    1c0c:	83 37       	cpi	r24, 0x73	; 115
    1c0e:	71 f0       	breq	.+28     	; 0x1c2c <vfprintf+0x13a>
    1c10:	83 35       	cpi	r24, 0x53	; 83
    1c12:	09 f0       	breq	.+2      	; 0x1c16 <vfprintf+0x124>
    1c14:	5b c0       	rjmp	.+182    	; 0x1ccc <vfprintf+0x1da>
    1c16:	22 c0       	rjmp	.+68     	; 0x1c5c <vfprintf+0x16a>
    1c18:	f8 01       	movw	r30, r16
    1c1a:	80 81       	ld	r24, Z
    1c1c:	89 83       	std	Y+1, r24	; 0x01
    1c1e:	0e 5f       	subi	r16, 0xFE	; 254
    1c20:	1f 4f       	sbci	r17, 0xFF	; 255
    1c22:	44 24       	eor	r4, r4
    1c24:	43 94       	inc	r4
    1c26:	51 2c       	mov	r5, r1
    1c28:	54 01       	movw	r10, r8
    1c2a:	15 c0       	rjmp	.+42     	; 0x1c56 <vfprintf+0x164>
    1c2c:	38 01       	movw	r6, r16
    1c2e:	f2 e0       	ldi	r31, 0x02	; 2
    1c30:	6f 0e       	add	r6, r31
    1c32:	71 1c       	adc	r7, r1
    1c34:	f8 01       	movw	r30, r16
    1c36:	a0 80       	ld	r10, Z
    1c38:	b1 80       	ldd	r11, Z+1	; 0x01
    1c3a:	26 ff       	sbrs	r18, 6
    1c3c:	03 c0       	rjmp	.+6      	; 0x1c44 <vfprintf+0x152>
    1c3e:	65 2d       	mov	r22, r5
    1c40:	70 e0       	ldi	r23, 0x00	; 0
    1c42:	02 c0       	rjmp	.+4      	; 0x1c48 <vfprintf+0x156>
    1c44:	6f ef       	ldi	r22, 0xFF	; 255
    1c46:	7f ef       	ldi	r23, 0xFF	; 255
    1c48:	c5 01       	movw	r24, r10
    1c4a:	2c 87       	std	Y+12, r18	; 0x0c
    1c4c:	0e 94 b8 0f 	call	0x1f70	; 0x1f70 <strnlen>
    1c50:	2c 01       	movw	r4, r24
    1c52:	83 01       	movw	r16, r6
    1c54:	2c 85       	ldd	r18, Y+12	; 0x0c
    1c56:	2f 77       	andi	r18, 0x7F	; 127
    1c58:	22 2e       	mov	r2, r18
    1c5a:	17 c0       	rjmp	.+46     	; 0x1c8a <vfprintf+0x198>
    1c5c:	38 01       	movw	r6, r16
    1c5e:	f2 e0       	ldi	r31, 0x02	; 2
    1c60:	6f 0e       	add	r6, r31
    1c62:	71 1c       	adc	r7, r1
    1c64:	f8 01       	movw	r30, r16
    1c66:	a0 80       	ld	r10, Z
    1c68:	b1 80       	ldd	r11, Z+1	; 0x01
    1c6a:	26 ff       	sbrs	r18, 6
    1c6c:	03 c0       	rjmp	.+6      	; 0x1c74 <vfprintf+0x182>
    1c6e:	65 2d       	mov	r22, r5
    1c70:	70 e0       	ldi	r23, 0x00	; 0
    1c72:	02 c0       	rjmp	.+4      	; 0x1c78 <vfprintf+0x186>
    1c74:	6f ef       	ldi	r22, 0xFF	; 255
    1c76:	7f ef       	ldi	r23, 0xFF	; 255
    1c78:	c5 01       	movw	r24, r10
    1c7a:	2c 87       	std	Y+12, r18	; 0x0c
    1c7c:	0e 94 a6 0f 	call	0x1f4c	; 0x1f4c <strnlen_P>
    1c80:	2c 01       	movw	r4, r24
    1c82:	2c 85       	ldd	r18, Y+12	; 0x0c
    1c84:	20 68       	ori	r18, 0x80	; 128
    1c86:	22 2e       	mov	r2, r18
    1c88:	83 01       	movw	r16, r6
    1c8a:	23 fc       	sbrc	r2, 3
    1c8c:	1b c0       	rjmp	.+54     	; 0x1cc4 <vfprintf+0x1d2>
    1c8e:	83 2d       	mov	r24, r3
    1c90:	90 e0       	ldi	r25, 0x00	; 0
    1c92:	48 16       	cp	r4, r24
    1c94:	59 06       	cpc	r5, r25
    1c96:	b0 f4       	brcc	.+44     	; 0x1cc4 <vfprintf+0x1d2>
    1c98:	b7 01       	movw	r22, r14
    1c9a:	80 e2       	ldi	r24, 0x20	; 32
    1c9c:	90 e0       	ldi	r25, 0x00	; 0
    1c9e:	0e 94 c3 0f 	call	0x1f86	; 0x1f86 <fputc>
    1ca2:	3a 94       	dec	r3
    1ca4:	f4 cf       	rjmp	.-24     	; 0x1c8e <vfprintf+0x19c>
    1ca6:	f5 01       	movw	r30, r10
    1ca8:	27 fc       	sbrc	r2, 7
    1caa:	85 91       	lpm	r24, Z+
    1cac:	27 fe       	sbrs	r2, 7
    1cae:	81 91       	ld	r24, Z+
    1cb0:	5f 01       	movw	r10, r30
    1cb2:	b7 01       	movw	r22, r14
    1cb4:	90 e0       	ldi	r25, 0x00	; 0
    1cb6:	0e 94 c3 0f 	call	0x1f86	; 0x1f86 <fputc>
    1cba:	31 10       	cpse	r3, r1
    1cbc:	3a 94       	dec	r3
    1cbe:	f1 e0       	ldi	r31, 0x01	; 1
    1cc0:	4f 1a       	sub	r4, r31
    1cc2:	51 08       	sbc	r5, r1
    1cc4:	41 14       	cp	r4, r1
    1cc6:	51 04       	cpc	r5, r1
    1cc8:	71 f7       	brne	.-36     	; 0x1ca6 <vfprintf+0x1b4>
    1cca:	e5 c0       	rjmp	.+458    	; 0x1e96 <vfprintf+0x3a4>
    1ccc:	84 36       	cpi	r24, 0x64	; 100
    1cce:	11 f0       	breq	.+4      	; 0x1cd4 <vfprintf+0x1e2>
    1cd0:	89 36       	cpi	r24, 0x69	; 105
    1cd2:	39 f5       	brne	.+78     	; 0x1d22 <vfprintf+0x230>
    1cd4:	f8 01       	movw	r30, r16
    1cd6:	27 ff       	sbrs	r18, 7
    1cd8:	07 c0       	rjmp	.+14     	; 0x1ce8 <vfprintf+0x1f6>
    1cda:	60 81       	ld	r22, Z
    1cdc:	71 81       	ldd	r23, Z+1	; 0x01
    1cde:	82 81       	ldd	r24, Z+2	; 0x02
    1ce0:	93 81       	ldd	r25, Z+3	; 0x03
    1ce2:	0c 5f       	subi	r16, 0xFC	; 252
    1ce4:	1f 4f       	sbci	r17, 0xFF	; 255
    1ce6:	08 c0       	rjmp	.+16     	; 0x1cf8 <vfprintf+0x206>
    1ce8:	60 81       	ld	r22, Z
    1cea:	71 81       	ldd	r23, Z+1	; 0x01
    1cec:	88 27       	eor	r24, r24
    1cee:	77 fd       	sbrc	r23, 7
    1cf0:	80 95       	com	r24
    1cf2:	98 2f       	mov	r25, r24
    1cf4:	0e 5f       	subi	r16, 0xFE	; 254
    1cf6:	1f 4f       	sbci	r17, 0xFF	; 255
    1cf8:	2f 76       	andi	r18, 0x6F	; 111
    1cfa:	b2 2e       	mov	r11, r18
    1cfc:	97 ff       	sbrs	r25, 7
    1cfe:	09 c0       	rjmp	.+18     	; 0x1d12 <vfprintf+0x220>
    1d00:	90 95       	com	r25
    1d02:	80 95       	com	r24
    1d04:	70 95       	com	r23
    1d06:	61 95       	neg	r22
    1d08:	7f 4f       	sbci	r23, 0xFF	; 255
    1d0a:	8f 4f       	sbci	r24, 0xFF	; 255
    1d0c:	9f 4f       	sbci	r25, 0xFF	; 255
    1d0e:	20 68       	ori	r18, 0x80	; 128
    1d10:	b2 2e       	mov	r11, r18
    1d12:	2a e0       	ldi	r18, 0x0A	; 10
    1d14:	30 e0       	ldi	r19, 0x00	; 0
    1d16:	a4 01       	movw	r20, r8
    1d18:	0e 94 f5 0f 	call	0x1fea	; 0x1fea <__ultoa_invert>
    1d1c:	a8 2e       	mov	r10, r24
    1d1e:	a8 18       	sub	r10, r8
    1d20:	44 c0       	rjmp	.+136    	; 0x1daa <vfprintf+0x2b8>
    1d22:	85 37       	cpi	r24, 0x75	; 117
    1d24:	29 f4       	brne	.+10     	; 0x1d30 <vfprintf+0x23e>
    1d26:	2f 7e       	andi	r18, 0xEF	; 239
    1d28:	b2 2e       	mov	r11, r18
    1d2a:	2a e0       	ldi	r18, 0x0A	; 10
    1d2c:	30 e0       	ldi	r19, 0x00	; 0
    1d2e:	25 c0       	rjmp	.+74     	; 0x1d7a <vfprintf+0x288>
    1d30:	f2 2f       	mov	r31, r18
    1d32:	f9 7f       	andi	r31, 0xF9	; 249
    1d34:	bf 2e       	mov	r11, r31
    1d36:	8f 36       	cpi	r24, 0x6F	; 111
    1d38:	c1 f0       	breq	.+48     	; 0x1d6a <vfprintf+0x278>
    1d3a:	18 f4       	brcc	.+6      	; 0x1d42 <vfprintf+0x250>
    1d3c:	88 35       	cpi	r24, 0x58	; 88
    1d3e:	79 f0       	breq	.+30     	; 0x1d5e <vfprintf+0x26c>
    1d40:	b4 c0       	rjmp	.+360    	; 0x1eaa <vfprintf+0x3b8>
    1d42:	80 37       	cpi	r24, 0x70	; 112
    1d44:	19 f0       	breq	.+6      	; 0x1d4c <vfprintf+0x25a>
    1d46:	88 37       	cpi	r24, 0x78	; 120
    1d48:	21 f0       	breq	.+8      	; 0x1d52 <vfprintf+0x260>
    1d4a:	af c0       	rjmp	.+350    	; 0x1eaa <vfprintf+0x3b8>
    1d4c:	2f 2f       	mov	r18, r31
    1d4e:	20 61       	ori	r18, 0x10	; 16
    1d50:	b2 2e       	mov	r11, r18
    1d52:	b4 fe       	sbrs	r11, 4
    1d54:	0d c0       	rjmp	.+26     	; 0x1d70 <vfprintf+0x27e>
    1d56:	8b 2d       	mov	r24, r11
    1d58:	84 60       	ori	r24, 0x04	; 4
    1d5a:	b8 2e       	mov	r11, r24
    1d5c:	09 c0       	rjmp	.+18     	; 0x1d70 <vfprintf+0x27e>
    1d5e:	24 ff       	sbrs	r18, 4
    1d60:	0a c0       	rjmp	.+20     	; 0x1d76 <vfprintf+0x284>
    1d62:	9f 2f       	mov	r25, r31
    1d64:	96 60       	ori	r25, 0x06	; 6
    1d66:	b9 2e       	mov	r11, r25
    1d68:	06 c0       	rjmp	.+12     	; 0x1d76 <vfprintf+0x284>
    1d6a:	28 e0       	ldi	r18, 0x08	; 8
    1d6c:	30 e0       	ldi	r19, 0x00	; 0
    1d6e:	05 c0       	rjmp	.+10     	; 0x1d7a <vfprintf+0x288>
    1d70:	20 e1       	ldi	r18, 0x10	; 16
    1d72:	30 e0       	ldi	r19, 0x00	; 0
    1d74:	02 c0       	rjmp	.+4      	; 0x1d7a <vfprintf+0x288>
    1d76:	20 e1       	ldi	r18, 0x10	; 16
    1d78:	32 e0       	ldi	r19, 0x02	; 2
    1d7a:	f8 01       	movw	r30, r16
    1d7c:	b7 fe       	sbrs	r11, 7
    1d7e:	07 c0       	rjmp	.+14     	; 0x1d8e <vfprintf+0x29c>
    1d80:	60 81       	ld	r22, Z
    1d82:	71 81       	ldd	r23, Z+1	; 0x01
    1d84:	82 81       	ldd	r24, Z+2	; 0x02
    1d86:	93 81       	ldd	r25, Z+3	; 0x03
    1d88:	0c 5f       	subi	r16, 0xFC	; 252
    1d8a:	1f 4f       	sbci	r17, 0xFF	; 255
    1d8c:	06 c0       	rjmp	.+12     	; 0x1d9a <vfprintf+0x2a8>
    1d8e:	60 81       	ld	r22, Z
    1d90:	71 81       	ldd	r23, Z+1	; 0x01
    1d92:	80 e0       	ldi	r24, 0x00	; 0
    1d94:	90 e0       	ldi	r25, 0x00	; 0
    1d96:	0e 5f       	subi	r16, 0xFE	; 254
    1d98:	1f 4f       	sbci	r17, 0xFF	; 255
    1d9a:	a4 01       	movw	r20, r8
    1d9c:	0e 94 f5 0f 	call	0x1fea	; 0x1fea <__ultoa_invert>
    1da0:	a8 2e       	mov	r10, r24
    1da2:	a8 18       	sub	r10, r8
    1da4:	fb 2d       	mov	r31, r11
    1da6:	ff 77       	andi	r31, 0x7F	; 127
    1da8:	bf 2e       	mov	r11, r31
    1daa:	b6 fe       	sbrs	r11, 6
    1dac:	0b c0       	rjmp	.+22     	; 0x1dc4 <vfprintf+0x2d2>
    1dae:	2b 2d       	mov	r18, r11
    1db0:	2e 7f       	andi	r18, 0xFE	; 254
    1db2:	a5 14       	cp	r10, r5
    1db4:	50 f4       	brcc	.+20     	; 0x1dca <vfprintf+0x2d8>
    1db6:	b4 fe       	sbrs	r11, 4
    1db8:	0a c0       	rjmp	.+20     	; 0x1dce <vfprintf+0x2dc>
    1dba:	b2 fc       	sbrc	r11, 2
    1dbc:	08 c0       	rjmp	.+16     	; 0x1dce <vfprintf+0x2dc>
    1dbe:	2b 2d       	mov	r18, r11
    1dc0:	2e 7e       	andi	r18, 0xEE	; 238
    1dc2:	05 c0       	rjmp	.+10     	; 0x1dce <vfprintf+0x2dc>
    1dc4:	7a 2c       	mov	r7, r10
    1dc6:	2b 2d       	mov	r18, r11
    1dc8:	03 c0       	rjmp	.+6      	; 0x1dd0 <vfprintf+0x2de>
    1dca:	7a 2c       	mov	r7, r10
    1dcc:	01 c0       	rjmp	.+2      	; 0x1dd0 <vfprintf+0x2de>
    1dce:	75 2c       	mov	r7, r5
    1dd0:	24 ff       	sbrs	r18, 4
    1dd2:	0d c0       	rjmp	.+26     	; 0x1dee <vfprintf+0x2fc>
    1dd4:	fe 01       	movw	r30, r28
    1dd6:	ea 0d       	add	r30, r10
    1dd8:	f1 1d       	adc	r31, r1
    1dda:	80 81       	ld	r24, Z
    1ddc:	80 33       	cpi	r24, 0x30	; 48
    1dde:	11 f4       	brne	.+4      	; 0x1de4 <vfprintf+0x2f2>
    1de0:	29 7e       	andi	r18, 0xE9	; 233
    1de2:	09 c0       	rjmp	.+18     	; 0x1df6 <vfprintf+0x304>
    1de4:	22 ff       	sbrs	r18, 2
    1de6:	06 c0       	rjmp	.+12     	; 0x1df4 <vfprintf+0x302>
    1de8:	73 94       	inc	r7
    1dea:	73 94       	inc	r7
    1dec:	04 c0       	rjmp	.+8      	; 0x1df6 <vfprintf+0x304>
    1dee:	82 2f       	mov	r24, r18
    1df0:	86 78       	andi	r24, 0x86	; 134
    1df2:	09 f0       	breq	.+2      	; 0x1df6 <vfprintf+0x304>
    1df4:	73 94       	inc	r7
    1df6:	23 fd       	sbrc	r18, 3
    1df8:	13 c0       	rjmp	.+38     	; 0x1e20 <vfprintf+0x32e>
    1dfa:	20 ff       	sbrs	r18, 0
    1dfc:	06 c0       	rjmp	.+12     	; 0x1e0a <vfprintf+0x318>
    1dfe:	5a 2c       	mov	r5, r10
    1e00:	73 14       	cp	r7, r3
    1e02:	18 f4       	brcc	.+6      	; 0x1e0a <vfprintf+0x318>
    1e04:	53 0c       	add	r5, r3
    1e06:	57 18       	sub	r5, r7
    1e08:	73 2c       	mov	r7, r3
    1e0a:	73 14       	cp	r7, r3
    1e0c:	68 f4       	brcc	.+26     	; 0x1e28 <vfprintf+0x336>
    1e0e:	b7 01       	movw	r22, r14
    1e10:	80 e2       	ldi	r24, 0x20	; 32
    1e12:	90 e0       	ldi	r25, 0x00	; 0
    1e14:	2c 87       	std	Y+12, r18	; 0x0c
    1e16:	0e 94 c3 0f 	call	0x1f86	; 0x1f86 <fputc>
    1e1a:	73 94       	inc	r7
    1e1c:	2c 85       	ldd	r18, Y+12	; 0x0c
    1e1e:	f5 cf       	rjmp	.-22     	; 0x1e0a <vfprintf+0x318>
    1e20:	73 14       	cp	r7, r3
    1e22:	10 f4       	brcc	.+4      	; 0x1e28 <vfprintf+0x336>
    1e24:	37 18       	sub	r3, r7
    1e26:	01 c0       	rjmp	.+2      	; 0x1e2a <vfprintf+0x338>
    1e28:	31 2c       	mov	r3, r1
    1e2a:	24 ff       	sbrs	r18, 4
    1e2c:	12 c0       	rjmp	.+36     	; 0x1e52 <vfprintf+0x360>
    1e2e:	b7 01       	movw	r22, r14
    1e30:	80 e3       	ldi	r24, 0x30	; 48
    1e32:	90 e0       	ldi	r25, 0x00	; 0
    1e34:	2c 87       	std	Y+12, r18	; 0x0c
    1e36:	0e 94 c3 0f 	call	0x1f86	; 0x1f86 <fputc>
    1e3a:	2c 85       	ldd	r18, Y+12	; 0x0c
    1e3c:	22 ff       	sbrs	r18, 2
    1e3e:	17 c0       	rjmp	.+46     	; 0x1e6e <vfprintf+0x37c>
    1e40:	21 ff       	sbrs	r18, 1
    1e42:	03 c0       	rjmp	.+6      	; 0x1e4a <vfprintf+0x358>
    1e44:	88 e5       	ldi	r24, 0x58	; 88
    1e46:	90 e0       	ldi	r25, 0x00	; 0
    1e48:	02 c0       	rjmp	.+4      	; 0x1e4e <vfprintf+0x35c>
    1e4a:	88 e7       	ldi	r24, 0x78	; 120
    1e4c:	90 e0       	ldi	r25, 0x00	; 0
    1e4e:	b7 01       	movw	r22, r14
    1e50:	0c c0       	rjmp	.+24     	; 0x1e6a <vfprintf+0x378>
    1e52:	82 2f       	mov	r24, r18
    1e54:	86 78       	andi	r24, 0x86	; 134
    1e56:	59 f0       	breq	.+22     	; 0x1e6e <vfprintf+0x37c>
    1e58:	21 fd       	sbrc	r18, 1
    1e5a:	02 c0       	rjmp	.+4      	; 0x1e60 <vfprintf+0x36e>
    1e5c:	80 e2       	ldi	r24, 0x20	; 32
    1e5e:	01 c0       	rjmp	.+2      	; 0x1e62 <vfprintf+0x370>
    1e60:	8b e2       	ldi	r24, 0x2B	; 43
    1e62:	27 fd       	sbrc	r18, 7
    1e64:	8d e2       	ldi	r24, 0x2D	; 45
    1e66:	b7 01       	movw	r22, r14
    1e68:	90 e0       	ldi	r25, 0x00	; 0
    1e6a:	0e 94 c3 0f 	call	0x1f86	; 0x1f86 <fputc>
    1e6e:	a5 14       	cp	r10, r5
    1e70:	38 f4       	brcc	.+14     	; 0x1e80 <vfprintf+0x38e>
    1e72:	b7 01       	movw	r22, r14
    1e74:	80 e3       	ldi	r24, 0x30	; 48
    1e76:	90 e0       	ldi	r25, 0x00	; 0
    1e78:	0e 94 c3 0f 	call	0x1f86	; 0x1f86 <fputc>
    1e7c:	5a 94       	dec	r5
    1e7e:	f7 cf       	rjmp	.-18     	; 0x1e6e <vfprintf+0x37c>
    1e80:	aa 94       	dec	r10
    1e82:	f4 01       	movw	r30, r8
    1e84:	ea 0d       	add	r30, r10
    1e86:	f1 1d       	adc	r31, r1
    1e88:	80 81       	ld	r24, Z
    1e8a:	b7 01       	movw	r22, r14
    1e8c:	90 e0       	ldi	r25, 0x00	; 0
    1e8e:	0e 94 c3 0f 	call	0x1f86	; 0x1f86 <fputc>
    1e92:	a1 10       	cpse	r10, r1
    1e94:	f5 cf       	rjmp	.-22     	; 0x1e80 <vfprintf+0x38e>
    1e96:	33 20       	and	r3, r3
    1e98:	09 f4       	brne	.+2      	; 0x1e9c <vfprintf+0x3aa>
    1e9a:	51 ce       	rjmp	.-862    	; 0x1b3e <vfprintf+0x4c>
    1e9c:	b7 01       	movw	r22, r14
    1e9e:	80 e2       	ldi	r24, 0x20	; 32
    1ea0:	90 e0       	ldi	r25, 0x00	; 0
    1ea2:	0e 94 c3 0f 	call	0x1f86	; 0x1f86 <fputc>
    1ea6:	3a 94       	dec	r3
    1ea8:	f6 cf       	rjmp	.-20     	; 0x1e96 <vfprintf+0x3a4>
    1eaa:	f7 01       	movw	r30, r14
    1eac:	86 81       	ldd	r24, Z+6	; 0x06
    1eae:	97 81       	ldd	r25, Z+7	; 0x07
    1eb0:	02 c0       	rjmp	.+4      	; 0x1eb6 <vfprintf+0x3c4>
    1eb2:	8f ef       	ldi	r24, 0xFF	; 255
    1eb4:	9f ef       	ldi	r25, 0xFF	; 255
    1eb6:	2c 96       	adiw	r28, 0x0c	; 12
    1eb8:	0f b6       	in	r0, 0x3f	; 63
    1eba:	f8 94       	cli
    1ebc:	de bf       	out	0x3e, r29	; 62
    1ebe:	0f be       	out	0x3f, r0	; 63
    1ec0:	cd bf       	out	0x3d, r28	; 61
    1ec2:	df 91       	pop	r29
    1ec4:	cf 91       	pop	r28
    1ec6:	1f 91       	pop	r17
    1ec8:	0f 91       	pop	r16
    1eca:	ff 90       	pop	r15
    1ecc:	ef 90       	pop	r14
    1ece:	df 90       	pop	r13
    1ed0:	cf 90       	pop	r12
    1ed2:	bf 90       	pop	r11
    1ed4:	af 90       	pop	r10
    1ed6:	9f 90       	pop	r9
    1ed8:	8f 90       	pop	r8
    1eda:	7f 90       	pop	r7
    1edc:	6f 90       	pop	r6
    1ede:	5f 90       	pop	r5
    1ee0:	4f 90       	pop	r4
    1ee2:	3f 90       	pop	r3
    1ee4:	2f 90       	pop	r2
    1ee6:	08 95       	ret

00001ee8 <__eerd_byte_m1284p>:
    1ee8:	f9 99       	sbic	0x1f, 1	; 31
    1eea:	fe cf       	rjmp	.-4      	; 0x1ee8 <__eerd_byte_m1284p>
    1eec:	92 bd       	out	0x22, r25	; 34
    1eee:	81 bd       	out	0x21, r24	; 33
    1ef0:	f8 9a       	sbi	0x1f, 0	; 31
    1ef2:	99 27       	eor	r25, r25
    1ef4:	80 b5       	in	r24, 0x20	; 32
    1ef6:	08 95       	ret

00001ef8 <__eewr_byte_m1284p>:
    1ef8:	26 2f       	mov	r18, r22

00001efa <__eewr_r18_m1284p>:
    1efa:	f9 99       	sbic	0x1f, 1	; 31
    1efc:	fe cf       	rjmp	.-4      	; 0x1efa <__eewr_r18_m1284p>
    1efe:	1f ba       	out	0x1f, r1	; 31
    1f00:	92 bd       	out	0x22, r25	; 34
    1f02:	81 bd       	out	0x21, r24	; 33
    1f04:	20 bd       	out	0x20, r18	; 32
    1f06:	0f b6       	in	r0, 0x3f	; 63
    1f08:	f8 94       	cli
    1f0a:	fa 9a       	sbi	0x1f, 2	; 31
    1f0c:	f9 9a       	sbi	0x1f, 1	; 31
    1f0e:	0f be       	out	0x3f, r0	; 63
    1f10:	01 96       	adiw	r24, 0x01	; 1
    1f12:	08 95       	ret

00001f14 <calloc>:
    1f14:	0f 93       	push	r16
    1f16:	1f 93       	push	r17
    1f18:	cf 93       	push	r28
    1f1a:	df 93       	push	r29
    1f1c:	86 9f       	mul	r24, r22
    1f1e:	80 01       	movw	r16, r0
    1f20:	87 9f       	mul	r24, r23
    1f22:	10 0d       	add	r17, r0
    1f24:	96 9f       	mul	r25, r22
    1f26:	10 0d       	add	r17, r0
    1f28:	11 24       	eor	r1, r1
    1f2a:	c8 01       	movw	r24, r16
    1f2c:	0e 94 7d 0b 	call	0x16fa	; 0x16fa <malloc>
    1f30:	ec 01       	movw	r28, r24
    1f32:	00 97       	sbiw	r24, 0x00	; 0
    1f34:	29 f0       	breq	.+10     	; 0x1f40 <calloc+0x2c>
    1f36:	a8 01       	movw	r20, r16
    1f38:	60 e0       	ldi	r22, 0x00	; 0
    1f3a:	70 e0       	ldi	r23, 0x00	; 0
    1f3c:	0e 94 b1 0f 	call	0x1f62	; 0x1f62 <memset>
    1f40:	ce 01       	movw	r24, r28
    1f42:	df 91       	pop	r29
    1f44:	cf 91       	pop	r28
    1f46:	1f 91       	pop	r17
    1f48:	0f 91       	pop	r16
    1f4a:	08 95       	ret

00001f4c <strnlen_P>:
    1f4c:	fc 01       	movw	r30, r24
    1f4e:	05 90       	lpm	r0, Z+
    1f50:	61 50       	subi	r22, 0x01	; 1
    1f52:	70 40       	sbci	r23, 0x00	; 0
    1f54:	01 10       	cpse	r0, r1
    1f56:	d8 f7       	brcc	.-10     	; 0x1f4e <strnlen_P+0x2>
    1f58:	80 95       	com	r24
    1f5a:	90 95       	com	r25
    1f5c:	8e 0f       	add	r24, r30
    1f5e:	9f 1f       	adc	r25, r31
    1f60:	08 95       	ret

00001f62 <memset>:
    1f62:	dc 01       	movw	r26, r24
    1f64:	01 c0       	rjmp	.+2      	; 0x1f68 <memset+0x6>
    1f66:	6d 93       	st	X+, r22
    1f68:	41 50       	subi	r20, 0x01	; 1
    1f6a:	50 40       	sbci	r21, 0x00	; 0
    1f6c:	e0 f7       	brcc	.-8      	; 0x1f66 <memset+0x4>
    1f6e:	08 95       	ret

00001f70 <strnlen>:
    1f70:	fc 01       	movw	r30, r24
    1f72:	61 50       	subi	r22, 0x01	; 1
    1f74:	70 40       	sbci	r23, 0x00	; 0
    1f76:	01 90       	ld	r0, Z+
    1f78:	01 10       	cpse	r0, r1
    1f7a:	d8 f7       	brcc	.-10     	; 0x1f72 <strnlen+0x2>
    1f7c:	80 95       	com	r24
    1f7e:	90 95       	com	r25
    1f80:	8e 0f       	add	r24, r30
    1f82:	9f 1f       	adc	r25, r31
    1f84:	08 95       	ret

00001f86 <fputc>:
    1f86:	0f 93       	push	r16
    1f88:	1f 93       	push	r17
    1f8a:	cf 93       	push	r28
    1f8c:	df 93       	push	r29
    1f8e:	18 2f       	mov	r17, r24
    1f90:	09 2f       	mov	r16, r25
    1f92:	eb 01       	movw	r28, r22
    1f94:	8b 81       	ldd	r24, Y+3	; 0x03
    1f96:	81 fd       	sbrc	r24, 1
    1f98:	03 c0       	rjmp	.+6      	; 0x1fa0 <fputc+0x1a>
    1f9a:	8f ef       	ldi	r24, 0xFF	; 255
    1f9c:	9f ef       	ldi	r25, 0xFF	; 255
    1f9e:	20 c0       	rjmp	.+64     	; 0x1fe0 <fputc+0x5a>
    1fa0:	82 ff       	sbrs	r24, 2
    1fa2:	10 c0       	rjmp	.+32     	; 0x1fc4 <fputc+0x3e>
    1fa4:	4e 81       	ldd	r20, Y+6	; 0x06
    1fa6:	5f 81       	ldd	r21, Y+7	; 0x07
    1fa8:	2c 81       	ldd	r18, Y+4	; 0x04
    1faa:	3d 81       	ldd	r19, Y+5	; 0x05
    1fac:	42 17       	cp	r20, r18
    1fae:	53 07       	cpc	r21, r19
    1fb0:	7c f4       	brge	.+30     	; 0x1fd0 <fputc+0x4a>
    1fb2:	e8 81       	ld	r30, Y
    1fb4:	f9 81       	ldd	r31, Y+1	; 0x01
    1fb6:	9f 01       	movw	r18, r30
    1fb8:	2f 5f       	subi	r18, 0xFF	; 255
    1fba:	3f 4f       	sbci	r19, 0xFF	; 255
    1fbc:	39 83       	std	Y+1, r19	; 0x01
    1fbe:	28 83       	st	Y, r18
    1fc0:	10 83       	st	Z, r17
    1fc2:	06 c0       	rjmp	.+12     	; 0x1fd0 <fputc+0x4a>
    1fc4:	e8 85       	ldd	r30, Y+8	; 0x08
    1fc6:	f9 85       	ldd	r31, Y+9	; 0x09
    1fc8:	81 2f       	mov	r24, r17
    1fca:	09 95       	icall
    1fcc:	89 2b       	or	r24, r25
    1fce:	29 f7       	brne	.-54     	; 0x1f9a <fputc+0x14>
    1fd0:	2e 81       	ldd	r18, Y+6	; 0x06
    1fd2:	3f 81       	ldd	r19, Y+7	; 0x07
    1fd4:	2f 5f       	subi	r18, 0xFF	; 255
    1fd6:	3f 4f       	sbci	r19, 0xFF	; 255
    1fd8:	3f 83       	std	Y+7, r19	; 0x07
    1fda:	2e 83       	std	Y+6, r18	; 0x06
    1fdc:	81 2f       	mov	r24, r17
    1fde:	90 2f       	mov	r25, r16
    1fe0:	df 91       	pop	r29
    1fe2:	cf 91       	pop	r28
    1fe4:	1f 91       	pop	r17
    1fe6:	0f 91       	pop	r16
    1fe8:	08 95       	ret

00001fea <__ultoa_invert>:
    1fea:	fa 01       	movw	r30, r20
    1fec:	aa 27       	eor	r26, r26
    1fee:	28 30       	cpi	r18, 0x08	; 8
    1ff0:	51 f1       	breq	.+84     	; 0x2046 <__ultoa_invert+0x5c>
    1ff2:	20 31       	cpi	r18, 0x10	; 16
    1ff4:	81 f1       	breq	.+96     	; 0x2056 <__ultoa_invert+0x6c>
    1ff6:	e8 94       	clt
    1ff8:	6f 93       	push	r22
    1ffa:	6e 7f       	andi	r22, 0xFE	; 254
    1ffc:	6e 5f       	subi	r22, 0xFE	; 254
    1ffe:	7f 4f       	sbci	r23, 0xFF	; 255
    2000:	8f 4f       	sbci	r24, 0xFF	; 255
    2002:	9f 4f       	sbci	r25, 0xFF	; 255
    2004:	af 4f       	sbci	r26, 0xFF	; 255
    2006:	b1 e0       	ldi	r27, 0x01	; 1
    2008:	3e d0       	rcall	.+124    	; 0x2086 <__ultoa_invert+0x9c>
    200a:	b4 e0       	ldi	r27, 0x04	; 4
    200c:	3c d0       	rcall	.+120    	; 0x2086 <__ultoa_invert+0x9c>
    200e:	67 0f       	add	r22, r23
    2010:	78 1f       	adc	r23, r24
    2012:	89 1f       	adc	r24, r25
    2014:	9a 1f       	adc	r25, r26
    2016:	a1 1d       	adc	r26, r1
    2018:	68 0f       	add	r22, r24
    201a:	79 1f       	adc	r23, r25
    201c:	8a 1f       	adc	r24, r26
    201e:	91 1d       	adc	r25, r1
    2020:	a1 1d       	adc	r26, r1
    2022:	6a 0f       	add	r22, r26
    2024:	71 1d       	adc	r23, r1
    2026:	81 1d       	adc	r24, r1
    2028:	91 1d       	adc	r25, r1
    202a:	a1 1d       	adc	r26, r1
    202c:	20 d0       	rcall	.+64     	; 0x206e <__ultoa_invert+0x84>
    202e:	09 f4       	brne	.+2      	; 0x2032 <__ultoa_invert+0x48>
    2030:	68 94       	set
    2032:	3f 91       	pop	r19
    2034:	2a e0       	ldi	r18, 0x0A	; 10
    2036:	26 9f       	mul	r18, r22
    2038:	11 24       	eor	r1, r1
    203a:	30 19       	sub	r19, r0
    203c:	30 5d       	subi	r19, 0xD0	; 208
    203e:	31 93       	st	Z+, r19
    2040:	de f6       	brtc	.-74     	; 0x1ff8 <__ultoa_invert+0xe>
    2042:	cf 01       	movw	r24, r30
    2044:	08 95       	ret
    2046:	46 2f       	mov	r20, r22
    2048:	47 70       	andi	r20, 0x07	; 7
    204a:	40 5d       	subi	r20, 0xD0	; 208
    204c:	41 93       	st	Z+, r20
    204e:	b3 e0       	ldi	r27, 0x03	; 3
    2050:	0f d0       	rcall	.+30     	; 0x2070 <__ultoa_invert+0x86>
    2052:	c9 f7       	brne	.-14     	; 0x2046 <__ultoa_invert+0x5c>
    2054:	f6 cf       	rjmp	.-20     	; 0x2042 <__ultoa_invert+0x58>
    2056:	46 2f       	mov	r20, r22
    2058:	4f 70       	andi	r20, 0x0F	; 15
    205a:	40 5d       	subi	r20, 0xD0	; 208
    205c:	4a 33       	cpi	r20, 0x3A	; 58
    205e:	18 f0       	brcs	.+6      	; 0x2066 <__ultoa_invert+0x7c>
    2060:	49 5d       	subi	r20, 0xD9	; 217
    2062:	31 fd       	sbrc	r19, 1
    2064:	40 52       	subi	r20, 0x20	; 32
    2066:	41 93       	st	Z+, r20
    2068:	02 d0       	rcall	.+4      	; 0x206e <__ultoa_invert+0x84>
    206a:	a9 f7       	brne	.-22     	; 0x2056 <__ultoa_invert+0x6c>
    206c:	ea cf       	rjmp	.-44     	; 0x2042 <__ultoa_invert+0x58>
    206e:	b4 e0       	ldi	r27, 0x04	; 4
    2070:	a6 95       	lsr	r26
    2072:	97 95       	ror	r25
    2074:	87 95       	ror	r24
    2076:	77 95       	ror	r23
    2078:	67 95       	ror	r22
    207a:	ba 95       	dec	r27
    207c:	c9 f7       	brne	.-14     	; 0x2070 <__ultoa_invert+0x86>
    207e:	00 97       	sbiw	r24, 0x00	; 0
    2080:	61 05       	cpc	r22, r1
    2082:	71 05       	cpc	r23, r1
    2084:	08 95       	ret
    2086:	9b 01       	movw	r18, r22
    2088:	ac 01       	movw	r20, r24
    208a:	0a 2e       	mov	r0, r26
    208c:	06 94       	lsr	r0
    208e:	57 95       	ror	r21
    2090:	47 95       	ror	r20
    2092:	37 95       	ror	r19
    2094:	27 95       	ror	r18
    2096:	ba 95       	dec	r27
    2098:	c9 f7       	brne	.-14     	; 0x208c <__ultoa_invert+0xa2>
    209a:	62 0f       	add	r22, r18
    209c:	73 1f       	adc	r23, r19
    209e:	84 1f       	adc	r24, r20
    20a0:	95 1f       	adc	r25, r21
    20a2:	a0 1d       	adc	r26, r0
    20a4:	08 95       	ret

000020a6 <_exit>:
    20a6:	f8 94       	cli

000020a8 <__stop_program>:
    20a8:	ff cf       	rjmp	.-2      	; 0x20a8 <__stop_program>
